Trying to open '..\FortiShield.sys'..
Loading PE information..
FileFormat: PE, Arch: x64

Wait a few seconds, rp++ is looking for gadgets (2 threads max)..
A total of 1224 gadgets found.
You decided to keep only the unique ones, 587 unique gadgets found.
0x15162: aaa ; ret ; (1 found)
0x116b1: aam 0x4C ; mov  [rsp+0x20], esi ; add rcx, rdi ; call rax ; (1 found)
0x17eb3: adc  [rax+0x0F], ecx ; ret ; (1 found)
0x17948: adc  [rax-0x3F], ecx ; rcl  [rax], 0x66 ; test ecx, 0x0275FFFF ; rep ret ; (1 found)
0x177ea: adc  [rax-0x7D], ecx ; retn 0x6602 ; (1 found)
0x14fd0: adc  [rbx-0x3E02678F], edx ; ret ; (1 found)
0x14f54: adc  [rdi-0x3E74BB09], ebp ; retn 0x410C ; (1 found)
0x15d81: adc  [rsi-0x77], esp ; add  [rax-0x7D], ecx ; retn 0x4801 ; (1 found)
0x1268c: adc al, 0x48 ; mov ecx,  [rsp+0x78] ; add rcx, 0x12 ; call rdx ; (1 found)
0x112d8: adc al, byte [rcx-0x7D] ; ret ; (1 found)
0x1f2d3: adc al, ch ; xchg edi, edi ; call qword [rax+0x244C8B48] ; (1 found)
0x17ebd: adc byte [rax-0x7D], cl ; rol  [rax+0x48], 0x0F ; ret ; (1 found)
0x15347: adc byte [rbp+0x03], al ; ret ; (1 found)
0x1540b: adc byte [rdi-0x74546BDD], ah ; retn 0xD0F7 ; (1 found)
0x152b7: adc byte [rdx-0x73], al ; xchg eax, esp ; add byte [rcx-0x3EB42131], ch ; retn 0x410B ; (1 found)
0x15ed6: adc eax, 0x000032ED ; add rsp, 0x28 ; ret ; (1 found)
0x159df: adc eax, 0x0000393C ; add rsp, 0x20 ; pop rbx ; ret ; (1 found)
0x13f8f: adc eax, 0x0000538C ; add rsp, 0x20 ; pop rbx ; ret ; (1 found)
0x111b4: adc eax, 0x00008177 ; mov al, 0x01 ; add rsp, 0x38 ; ret ; (1 found)
0x124e9: adc eax, 0x8B000055 ; ret ; (1 found)
0x1f325: adc eax, 0xFFFF9E26 ; add rsp, 0x30 ; pop rbp ; ret ; (1 found)
0x1f2d2: adc r8L, bpl ; xchg edi, edi ; call qword [rax+0x244C8B48] ; (1 found)
0x15603: add  [rax-0x238A01BF], ecx ; ret ; (1 found)
0x1f2cf: add  [rax-0x75], ecx ; adc r8L, bpl ; xchg edi, edi ; call qword [rax+0x244C8B48] ; (1 found)
0x112dc: add  [rax-0x7D], ecx ; retn 0x4102 ; (2 found)
0x15d84: add  [rax-0x7D], ecx ; retn 0x4801 ; (1 found)
0x155fa: add  [rax-0x7D], ecx ; retn 0x4904 ; (2 found)
0x14dcd: add  [rax-0x7D], ecx ; retn 0xC104 ; (1 found)
0x111b6: add  [rax], 0x4801B000 ; add esp, 0x38 ; ret ; (1 found)
0x13de5: add  [rax], eax ; add al, ch ; ret ; (1 found)
0x2072a: add  [rax], eax ; add byte [rax], al ; add byte [rax], al ; retn 0x0108 ; (1 found)
0x18068: add  [rax], eax ; add byte [rax], al ; add rsp, 0x28 ; ret ; (1 found)
0x149ec: add  [rax], eax ; add byte [rbx+0x03482046], cl ; ret ; (2 found)
0x17cda: add  [rbp-0x0D], esi ; mov rax, r11 ; ret ; (1 found)
0x1296b: add ah, byte [rsi+0x3B] ; ret ; (2 found)
0x1187d: add al, 0x00 ; add byte [rdx], bh ; ret ; (1 found)
0x112d6: add al, 0x74 ; adc al, byte [rcx-0x7D] ; ret ; (1 found)
0x1f1e1: add al, 0x8B ; ret ; (2 found)
0x17553: add al, al ; ret ; (1 found)
0x112e0: add al, byte [rcx-0x75] ; ret ; (1 found)
0x13de7: add al, ch ; ret ; (1 found)
0x16097: add al, ch ; sbb eax, 0x3B000019 ; ret ; (1 found)
0x1754e: add bh, bh ; mov eax, 0xC00000BB ; ret ; (1 found)
0x130e7: add byte [rax+0x00000001], bh ; add rsp, 0x20 ; pop rbx ; ret ; (1 found)
0x12937: add byte [rax+0x3B], cl ; ret ; (6 found)
0x134bc: add byte [rax-0x74B80000], dl ; ret ; (1 found)
0x134bf: add byte [rax-0x75], cl ; ret ; (2 found)
0x12e71: add byte [rax-0x7B], cl ; ror byte [rdx+0x480674D8], cl ; lea ecx,  [rdi+0x12] ; call rdx ; (1 found)
0x12f58: add byte [rax-0x7B], cl ; ror byte [rdx+0x481374D8], cl ; lea ecx,  [rdi+0x12] ; call rdx ; (1 found)
0x16b47: add byte [rax-0x7B], cl ; sal byte [rdi+rax*2+0x48], 0x8B ; and al, 0x38 ; call rax ; (1 found)
0x1334f: add byte [rax-0x7D], cl ; movsxd ecx,  [rax] ; add byte [rsi-0x7D], ah ; call qword [rax] ; (1 found)
0x12664: add byte [rax-0x7D], cl ; retn 0x4812 ; (1 found)
0x14db8: add byte [rax-0x7D], cl ; retn 0x4C02 ; (1 found)
0x14cf9: add byte [rax-0x7D], cl ; retn 0xE810 ; (1 found)
0x16095: add byte [rax], al ; add al, ch ; sbb eax, 0x3B000019 ; ret ; (1 found)
0x178b1: add byte [rax], al ; add byte [rax+0x3B], cl ; ret ; (1 found)
0x14db6: add byte [rax], al ; add byte [rax-0x7D], cl ; retn 0x4C02 ; (1 found)
0x14cf7: add byte [rax], al ; add byte [rax-0x7D], cl ; retn 0xE810 ; (1 found)
0x2072c: add byte [rax], al ; add byte [rax], al ; retn 0x0108 ; (1 found)
0x17539: add byte [rax], al ; add byte [rbp+0x11], dh ; xor eax, eax ; ret ; (2 found)
0x180ca: add byte [rax], al ; add byte [rbx], ah ; retn 0x8041 ; (1 found)
0x11f49: add byte [rax], al ; add rsp, 0x0000000000000090 ; pop rbx ; ret ; (1 found)
0x171ce: add byte [rax], al ; add rsp, 0x0000000000000090 ; pop rdi ; ret ; (1 found)
0x14c02: add byte [rax], al ; add rsp, 0x0000000000000510 ; pop rdi ; ret ; (1 found)
0x11d41: add byte [rax], al ; add rsp, 0x20 ; pop rbp ; ret ; (1 found)
0x130eb: add byte [rax], al ; add rsp, 0x20 ; pop rbx ; ret ; (3 found)
0x15ed9: add byte [rax], al ; add rsp, 0x28 ; ret ; (2 found)
0x131c4: add byte [rax], al ; call r11 ; (1 found)
0x111b7: add byte [rax], al ; mov al, 0x01 ; add rsp, 0x38 ; ret ; (1 found)
0x11f50: add byte [rax], al ; pop rbx ; ret ; (1 found)
0x14c09: add byte [rax], al ; pop rdi ; ret ; (2 found)
0x2072e: add byte [rax], al ; retn 0x0108 ; (1 found)
0x20bec: add byte [rax], al ; retn 0x7305 ; (1 found)
0x12747: add byte [rax], al ; xor eax, eax ; add rsp, 0x28 ; ret ; (2 found)
0x1753c: add byte [rbp+0x11], dh ; xor eax, eax ; ret ; (1 found)
0x149ef: add byte [rbx+0x03482046], cl ; ret ; (1 found)
0x163ea: add byte [rbx+0x79DB85D8], cl ; add al, 0x8B ; ret ; (1 found)
0x180cc: add byte [rbx], ah ; retn 0x8041 ; (1 found)
0x128f4: add byte [rbx], bh ; ret ; (5 found)
0x152bb: add byte [rcx-0x3EB42131], ch ; retn 0x410B ; (1 found)
0x1187f: add byte [rdx], bh ; ret ; (1 found)
0x13354: add byte [rsi-0x7D], ah ; call qword [rax] ; (1 found)
0x115ed: add cl, byte [rax-0x7D] ; retn 0x6602 ; (1 found)
0x14dc9: add cl, byte [rdi] ; mov dh, 0x4A ; add  [rax-0x7D], ecx ; retn 0xC104 ; (1 found)
0x17953: add dh, bl ; ret ; (1 found)
0x14952: add dh, byte [rdx] ; ror byte [rax-0x75], 0x7C ; and al, 0x08 ; ret ; (1 found)
0x1514f: add eax, 0x0344CA23 ; rol byte [rcx+0x23], cl ; retn 0xC80B ; (1 found)
0x201b2: add eax, 0xFFFFC491 ; xor edx, edx ; lea rcx, qword [0x00000000000117F4] ; call rax ; (1 found)
0x12693: add ecx, 0x12 ; call rdx ; (2 found)
0x116b8: add ecx, edi ; call rax ; (1 found)
0x11f4c: add esp, 0x00000090 ; pop rbx ; ret ; (1 found)
0x171d1: add esp, 0x00000090 ; pop rdi ; ret ; (1 found)
0x14c05: add esp, 0x00000510 ; pop rdi ; ret ; (1 found)
0x11b0e: add esp, 0x20 ; pop r12 ; ret ; (3 found)
0x11d44: add esp, 0x20 ; pop rbp ; ret ; (1 found)
0x1f02a: add esp, 0x20 ; pop rbx ; ret ; (4 found)
0x1160e: add esp, 0x20 ; pop rdi ; ret ; (13 found)
0x1f061: add esp, 0x28 ; ret ; (6 found)
0x1f32b: add esp, 0x30 ; pop rbp ; ret ; (1 found)
0x13427: add esp, 0x30 ; pop rdi ; ret ; (3 found)
0x111bc: add esp, 0x38 ; ret ; (1 found)
0x2031a: add esp, 0x40 ; pop rbp ; ret ; (2 found)
0x1f2fc: add esp, 0x40 ; pop rbx ; ret ; (1 found)
0x12478: add esp, 0x40 ; pop rdi ; ret ; (4 found)
0x13aa0: add esp, 0x50 ; pop rbp ; ret ; (1 found)
0x1280b: add esp, 0x50 ; pop rdi ; ret ; (3 found)
0x1330a: add esp, 0x60 ; pop rbp ; ret ; (1 found)
0x13f2a: add esp, 0x60 ; pop rdi ; ret ; (2 found)
0x14dcc: add qword [rax-0x7D], rcx ; retn 0xC104 ; (1 found)
0x12692: add rcx, 0x12 ; call rdx ; (2 found)
0x116b7: add rcx, rdi ; call rax ; (1 found)
0x11f4b: add rsp, 0x0000000000000090 ; pop rbx ; ret ; (1 found)
0x171d0: add rsp, 0x0000000000000090 ; pop rdi ; ret ; (1 found)
0x14c04: add rsp, 0x0000000000000510 ; pop rdi ; ret ; (1 found)
0x11b0c: add rsp, 0x20 ; pop r12 ; ret ; (5 found)
0x11d43: add rsp, 0x20 ; pop rbp ; ret ; (1 found)
0x1f029: add rsp, 0x20 ; pop rbx ; ret ; (4 found)
0x1160c: add rsp, 0x20 ; pop rdi ; ret ; (16 found)
0x1f060: add rsp, 0x28 ; ret ; (6 found)
0x1f32a: add rsp, 0x30 ; pop rbp ; ret ; (1 found)
0x13426: add rsp, 0x30 ; pop rdi ; ret ; (4 found)
0x111bb: add rsp, 0x38 ; ret ; (1 found)
0x20319: add rsp, 0x40 ; pop rbp ; ret ; (2 found)
0x1f2fb: add rsp, 0x40 ; pop rbx ; ret ; (1 found)
0x12477: add rsp, 0x40 ; pop rdi ; ret ; (4 found)
0x13a9f: add rsp, 0x50 ; pop rbp ; ret ; (1 found)
0x1280a: add rsp, 0x50 ; pop rdi ; ret ; (3 found)
0x13309: add rsp, 0x60 ; pop rbp ; ret ; (1 found)
0x13f29: add rsp, 0x60 ; pop rdi ; ret ; (2 found)
0x14958: and al, 0x08 ; ret ; (2 found)
0x116b5: and al, 0x20 ; add rcx, rdi ; call rax ; (1 found)
0x130c6: and al, 0x30 ; add rcx, 0x12 ; call rdx ; (2 found)
0x11ecd: and al, 0x30 ; add rsp, 0x20 ; pop rdi ; ret ; (5 found)
0x124f7: and al, 0x38 ; add rsp, 0x20 ; pop rdi ; ret ; (3 found)
0x16b4f: and al, 0x38 ; call rax ; (2 found)
0x1160b: and al, 0x40 ; add rsp, 0x20 ; pop rdi ; ret ; (3 found)
0x11b0b: and al, 0x48 ; add rsp, 0x20 ; pop r12 ; ret ; (2 found)
0x140ec: and al, 0x48 ; add rsp, 0x30 ; pop rdi ; ret ; (1 found)
0x13424: and al, 0x50 ; add rsp, 0x30 ; pop rdi ; ret ; (2 found)
0x170c4: and al, 0x50 ; add rsp, 0x40 ; pop rdi ; ret ; (1 found)
0x12026: and al, 0x58 ; add rsp, 0x40 ; pop rbp ; ret ; (1 found)
0x13c14: and al, 0x58 ; add rsp, 0x40 ; pop rdi ; ret ; (2 found)
0x12808: and al, 0x68 ; add rsp, 0x50 ; pop rdi ; ret ; (1 found)
0x13a9d: and al, 0x70 ; add rsp, 0x50 ; pop rbp ; ret ; (1 found)
0x16382: and al, 0x70 ; add rsp, 0x50 ; pop rdi ; ret ; (1 found)
0x13307: and al, 0x70 ; add rsp, 0x60 ; pop rbp ; ret ; (1 found)
0x13f27: and al, 0x70 ; add rsp, 0x60 ; pop rdi ; ret ; (1 found)
0x1268f: and al, 0x78 ; add rcx, 0x12 ; call rdx ; (2 found)
0x162ac: and al, 0x78 ; add rsp, 0x50 ; pop rdi ; ret ; (1 found)
0x166fc: and al, 0x78 ; add rsp, 0x60 ; pop rdi ; ret ; (1 found)
0x14f51: and al, 0x8D ; xchg eax, esp ; adc  [rdi-0x3E74BB09], ebp ; retn 0x410C ; (1 found)
0x14db4: and al, 0x90 ; add byte [rax], al ; add byte [rax-0x7D], cl ; retn 0x4C02 ; (1 found)
0x12934: and byte [rax+0x00], ch ; add byte [rax+0x3B], cl ; ret ; (1 found)
0x149f2: and byte [rax+0x03], cl ; ret ; (1 found)
0x149f1: and byte [rax+0x03], r9L ; ret ; (1 found)
0x11b10: and byte [rcx+0x5C], al ; ret ; (3 found)
0x17776: and byte [rcx+0x5D], al ; pop r12 ; pop rdi ; ret ; (1 found)
0x15e30: and byte [rcx+0x5E], al ; pop r12 ; pop rdi ; ret ; (1 found)
0x148e1: and byte [rdi+0x5E], bl ; pop rbp ; ret ; (1 found)
0x15045: and eax, 0xC141F61E ; ret ; (1 found)
0x20044: call qword [rax+0x0001B890] ; (1 found)
0x202a4: call qword [rax+0x2279FF85] ; (1 found)
0x1f2d8: call qword [rax+0x244C8B48] ; (1 found)
0x13357: call qword [rax] ; (1 found)
0x126e7: call qword [rdx+0x00] ; (1 found)
0x131c6: call r11 ; (1 found)
0x148cf: call r8 ; (2 found)
0x201c0: call rax ; (8 found)
0x131c7: call rbx ; (1 found)
0x14647: call rcx ; (1 found)
0x12696: call rdx ; (4 found)
0x1736c: cld ; retn 0x0008 ; (1 found)
0x14ee7: cmove eax,  [rbx] ; retn 0x2341 ; (1 found)
0x168d4: cmove eax, ecx ; add rsp, 0x20 ; pop rdi ; ret ; (1 found)
0x148c9: cmp  [rax], 0x05730A28 ; call r8 ; (1 found)
0x148ca: cmp byte [rax], ch ; or dh, byte [rbx+0x05] ; call r8 ; (1 found)
0x17fbf: cmp eax, ecx ; sbb eax, eax ; sbb eax, 0xFFFFFFFF ; ret ; (1 found)
0x17fbe: cmp rax, rcx ; sbb eax, eax ; sbb eax, 0xFFFFFFFF ; ret ; (1 found)
0x14f37: cwde ; sub byte [rcx+0x41], 0xC1 ; retn 0x4507 ; (1 found)
0x1783c: dec  [rax-0x7D] ; leave ; jmp qword [rsi-0x0E] ; (1 found)
0x17cd8: enter 0x0188, 0x75 ; mov rax, r11 ; ret ; (1 found)
0x14ee6: enter 0x440F, 0x03 ; retn 0x2341 ; (1 found)
0x153c4: enter 0x4509, 0x03 ; retn 0x0B41 ; (1 found)
0x17f3c: enter 0xF175, 0x48 ; xor eax, eax ; ret ; (1 found)
0x17b3a: enter 0xF375, 0x49 ; mov eax, ebx ; ret ; (1 found)
0x163ec: fadd  [rbp-0x74FB8625] ; ret ; (1 found)
0x14f36: fcomp  [rax-0x3EBE9680] ; retn 0x4507 ; (1 found)
0x130c1: fdiv  [rbx+rcx+0x48] ; mov ecx,  [rsp+0x30] ; add rcx, 0x12 ; call rdx ; (1 found)
0x12f5d: fdiv  [rbx+rdx+0x48] ; lea ecx,  [rdi+0x12] ; call rdx ; (1 found)
0x12e76: fdiv  [rsi+rax+0x48] ; lea ecx,  [rdi+0x12] ; call rdx ; (1 found)
0x17f46: fdivr st0, st7 ; ret ; (2 found)
0x154da: fiadd  [rcx+0x0B] ; ret ; (1 found)
0x14ea9: fiadd  [rcx+0x23] ; ret ; (1 found)
0x152b0: fiadd  [rcx+0x33] ; ret ; (1 found)
0x1532b: fiadd  [rcx-0x75] ; ret ; (1 found)
0x152be: fimul word [rbx-0x3F] ; retn 0x410B ; (1 found)
0x12e6e: fisub word [rdx-0x7AB80000] ; ror byte [rdx+0x480674D8], cl ; lea ecx,  [rdi+0x12] ; call rdx ; (1 found)
0x14fbe: fld  [rcx+0x23] ; ret ; (1 found)
0x150ed: fld  [rcx-0x75] ; ret ; (2 found)
0x17ec6: fmul  [rax+0x0F] ; ret ; (1 found)
0x14f39: imul eax,  [rcx-0x3F], 0x034507C2 ; rol  [rcx+0x23], 1 ; retn 0x8B41 ; (1 found)
0x15ec6: in al, dx ; sub byte [rax-0x7B], cl ; ror byte [rax-0x75], cl ; retn 0x0B74 ; (1 found)
0x2029f: int 0xE8 ; or esi,  [rcx-0x01] ; call qword [rax+0x2279FF85] ; (1 found)
0x17f3e: int1 ; xor rax, rax ; ret ; (1 found)
0x13316: int3 ; int3 ; xor eax, eax ; ret ; (1 found)
0x13317: int3 ; xor eax, eax ; ret ; (1 found)
0x1f0ee: jmp qword [rax] ; (1 found)
0x1299a: jmp qword [rsi+0x44] ; (1 found)
0x17b94: jmp qword [rsi+0x66] ; (3 found)
0x17840: jmp qword [rsi-0x0E] ; (1 found)
0x11ad8: jmp qword [rsi-0x7D] ; (4 found)
0x202ad: lahf ; retn 0xFFFF ; (1 found)
0x201b1: lea eax,  [0x000000000001C648] ; xor edx, edx ; lea rcx, qword [0x00000000000117F4] ; call rax ; (1 found)
0x201ba: lea ecx,  [0x00000000000117F4] ; call rax ; (1 found)
0x131c0: lea ecx,  [0x00000000000147B4] ; call r11 ; (1 found)
0x12e7a: lea ecx,  [rdi+0x12] ; call rdx ; (2 found)
0x201b0: lea r8, qword [0x000000000001C648] ; xor edx, edx ; lea rcx, qword [0x00000000000117F4] ; call rax ; (1 found)
0x201b9: lea rcx, qword [0x00000000000117F4] ; call rax ; (1 found)
0x131bf: lea rcx, qword [0x00000000000147B4] ; call r11 ; (1 found)
0x12e79: lea rcx, qword [rdi+0x12] ; call rdx ; (2 found)
0x1783f: leave ; jmp qword [rsi-0x0E] ; (1 found)
0x177f3: lock xor eax, eax ; mov rdi, qword [rsp+0x08] ; ret ; (1 found)
0x16768: lodsb ; sub  [rax], eax ; add byte [rbx], bh ; ret ; (1 found)
0x1739c: mov  [0x000000000001D1A8], ecx ; xor eax, eax ; add rsp, 0x28 ; ret ; (1 found)
0x116b3: mov  [rsp+0x20], esi ; add rcx, rdi ; call rax ; (1 found)
0x111b9: mov al, 0x01 ; add rsp, 0x38 ; ret ; (1 found)
0x171cc: mov al, byte [0x0090C48148000000] ; add byte [rax], al ; pop rdi ; ret ; (1 found)
0x1505f: mov bl, 0x40 ; rol byte [rcx-0x3F], 0xC0 ; or  [rbp+0x03], eax ; ret ; (2 found)
0x15407: mov byte [rdx-0x73], 0x8C ; adc byte [rdi-0x74546BDD], ah ; retn 0xD0F7 ; (1 found)
0x137e4: mov byte [rsi+0x15FF0000], cl ; retn 0x0058 ; (1 found)
0x14dcb: mov dh, 0x4A ; add  [rax-0x7D], ecx ; retn 0xC104 ; (1 found)
0x130e8: mov eax, 0x00000001 ; add rsp, 0x20 ; pop rbx ; ret ; (1 found)
0x18067: mov eax, 0x00000001 ; add rsp, 0x28 ; ret ; (1 found)
0x17550: mov eax, 0xC00000BB ; ret ; (1 found)
0x16094: mov eax, 0xE8000000 ; sbb eax, 0x3B000019 ; ret ; (1 found)
0x1758e: mov eax, ebx ; mov rdx, rsi ; mov rcx, rbp ; call rax ; (1 found)
0x17b2a: mov eax, ebx ; ret ; (4 found)
0x14f58: mov eax, ecx ; retn 0x410C ; (1 found)
0x18103: mov eax, edx ; add rsp, 0x20 ; pop r12 ; ret ; (1 found)
0x140ea: mov ebp,  [rsp+0x48] ; add rsp, 0x30 ; pop rdi ; ret ; (1 found)
0x13c12: mov ebp,  [rsp+0x58] ; add rsp, 0x40 ; pop rdi ; ret ; (1 found)
0x14e7e: mov ebp, 0xCAC141C1 ; or al, byte [rbp+0x03] ; rol  [rcx+0x23], 1 ; retn 0x8B41 ; (1 found)
0x171c9: mov ebx,  [rsp+0x000000A0] ; add rsp, 0x0000000000000090 ; pop rdi ; ret ; (1 found)
0x11ecb: mov ebx,  [rsp+0x30] ; add rsp, 0x20 ; pop rdi ; ret ; (5 found)
0x13056: mov ebx,  [rsp+0x38] ; add rsp, 0x20 ; pop rdi ; ret ; (1 found)
0x14d7c: mov ebx,  [rsp+0x50] ; add rsp, 0x30 ; pop rdi ; ret ; (1 found)
0x170c2: mov ebx,  [rsp+0x50] ; add rsp, 0x40 ; pop rdi ; ret ; (1 found)
0x12806: mov ebx,  [rsp+0x68] ; add rsp, 0x50 ; pop rdi ; ret ; (1 found)
0x16380: mov ebx,  [rsp+0x70] ; add rsp, 0x50 ; pop rdi ; ret ; (1 found)
0x13305: mov ebx,  [rsp+0x70] ; add rsp, 0x60 ; pop rbp ; ret ; (1 found)
0x13f25: mov ebx,  [rsp+0x70] ; add rsp, 0x60 ; pop rdi ; ret ; (1 found)
0x130c5: mov ecx,  [rsp+0x30] ; add rcx, 0x12 ; call rdx ; (1 found)
0x16b4e: mov ecx,  [rsp+0x38] ; call rax ; (1 found)
0x1268e: mov ecx,  [rsp+0x78] ; add rcx, 0x12 ; call rdx ; (1 found)
0x17594: mov ecx, ebp ; call rax ; (1 found)
0x1686a: mov ecx, ebx ; call rax ; (1 found)
0x1f232: mov edi,  [rbx+0x28] ; mov rsp, r11 ; pop r12 ; ret ; (2 found)
0x14956: mov edi,  [rsp+0x08] ; ret ; (2 found)
0x11b09: mov edi,  [rsp+0x48] ; add rsp, 0x20 ; pop r12 ; ret ; (2 found)
0x12024: mov edi,  [rsp+0x58] ; add rsp, 0x40 ; pop rbp ; ret ; (1 found)
0x13a9b: mov edi,  [rsp+0x70] ; add rsp, 0x50 ; pop rbp ; ret ; (1 found)
0x11d3f: mov edi, 0x4800005C ; add esp, 0x20 ; pop rbp ; ret ; (1 found)
0x1292f: mov edx, 0x15FF005C ; and byte [rax+0x00], ch ; add byte [rax+0x3B], cl ; ret ; (1 found)
0x17591: mov edx, esi ; mov rcx, rbp ; call rax ; (1 found)
0x116b0: mov edx, esp ; mov qword [rsp+0x20], r14 ; add rcx, rdi ; call rax ; (1 found)
0x1644b: mov esi,  [rbx+0x18] ; mov rsp, r11 ; pop rdi ; ret ; (1 found)
0x147a4: mov esi,  [rbx+0x20] ; mov rsp, r11 ; pop rdi ; ret ; (2 found)
0x124f5: mov esi,  [rsp+0x38] ; add rsp, 0x20 ; pop rdi ; ret ; (2 found)
0x11609: mov esi,  [rsp+0x40] ; add rsp, 0x20 ; pop rdi ; ret ; (3 found)
0x13422: mov esi,  [rsp+0x50] ; add rsp, 0x30 ; pop rdi ; ret ; (1 found)
0x15976: mov esi,  [rsp+0x58] ; add rsp, 0x40 ; pop rdi ; ret ; (1 found)
0x162aa: mov esi,  [rsp+0x78] ; add rsp, 0x50 ; pop rdi ; ret ; (1 found)
0x166fa: mov esi,  [rsp+0x78] ; add rsp, 0x60 ; pop rdi ; ret ; (1 found)
0x202df: mov esp,  [rbx+0x28] ; mov rsp, r11 ; pop r13 ; ret ; (1 found)
0x14db3: mov esp, 0x00009024 ; add byte [rax-0x7D], cl ; retn 0x4C02 ; (1 found)
0x1f236: mov esp, ebx ; pop r12 ; ret ; (2 found)
0x202e3: mov esp, ebx ; pop r13 ; ret ; (1 found)
0x147a8: mov esp, ebx ; pop rdi ; ret ; (3 found)
0x1739b: mov qword [0x000000000001D1A8], rcx ; xor eax, eax ; add rsp, 0x28 ; ret ; (1 found)
0x116b2: mov qword [rsp+0x20], r14 ; add rcx, rdi ; call rax ; (1 found)
0x202de: mov r12, qword [r11+0x28] ; mov rsp, r11 ; pop r13 ; ret ; (1 found)
0x1758d: mov r8, rbx ; mov rdx, rsi ; mov rcx, rbp ; call rax ; (1 found)
0x14f57: mov r8d, ecx ; retn 0x410C ; (1 found)
0x17b29: mov rax, r11 ; ret ; (6 found)
0x18102: mov rax, rdx ; add rsp, 0x20 ; pop r12 ; ret ; (1 found)
0x140e8: mov rbp, qword [rsp+0x48] ; add rsp, 0x30 ; pop rdi ; ret ; (2 found)
0x13c11: mov rbp, qword [rsp+0x58] ; add rsp, 0x40 ; pop rdi ; ret ; (1 found)
0x171c8: mov rbx, qword [rsp+0x000000A0] ; add rsp, 0x0000000000000090 ; pop rdi ; ret ; (1 found)
0x11eca: mov rbx, qword [rsp+0x30] ; add rsp, 0x20 ; pop rdi ; ret ; (5 found)
0x13055: mov rbx, qword [rsp+0x38] ; add rsp, 0x20 ; pop rdi ; ret ; (1 found)
0x14d7b: mov rbx, qword [rsp+0x50] ; add rsp, 0x30 ; pop rdi ; ret ; (1 found)
0x170c1: mov rbx, qword [rsp+0x50] ; add rsp, 0x40 ; pop rdi ; ret ; (1 found)
0x12805: mov rbx, qword [rsp+0x68] ; add rsp, 0x50 ; pop rdi ; ret ; (1 found)
0x1637f: mov rbx, qword [rsp+0x70] ; add rsp, 0x50 ; pop rdi ; ret ; (1 found)
0x13304: mov rbx, qword [rsp+0x70] ; add rsp, 0x60 ; pop rbp ; ret ; (1 found)
0x13f24: mov rbx, qword [rsp+0x70] ; add rsp, 0x60 ; pop rdi ; ret ; (1 found)
0x130c4: mov rcx, qword [rsp+0x30] ; add rcx, 0x12 ; call rdx ; (1 found)
0x16b4c: mov rcx, qword [rsp+0x38] ; call rax ; (2 found)
0x1268d: mov rcx, qword [rsp+0x78] ; add rcx, 0x12 ; call rdx ; (1 found)
0x17593: mov rcx, rbp ; call rax ; (1 found)
0x16869: mov rcx, rbx ; call rax ; (1 found)
0x1f231: mov rdi, qword [r11+0x28] ; mov rsp, r11 ; pop r12 ; ret ; (2 found)
0x14955: mov rdi, qword [rsp+0x08] ; ret ; (2 found)
0x11b07: mov rdi, qword [rsp+0x48] ; add rsp, 0x20 ; pop r12 ; ret ; (4 found)
0x12023: mov rdi, qword [rsp+0x58] ; add rsp, 0x40 ; pop rbp ; ret ; (1 found)
0x13a9a: mov rdi, qword [rsp+0x70] ; add rsp, 0x50 ; pop rbp ; ret ; (1 found)
0x116af: mov rdx, r12 ; mov qword [rsp+0x20], r14 ; add rcx, rdi ; call rax ; (1 found)
0x17590: mov rdx, rsi ; mov rcx, rbp ; call rax ; (1 found)
0x1644a: mov rsi, qword [r11+0x18] ; mov rsp, r11 ; pop rdi ; ret ; (1 found)
0x147a3: mov rsi, qword [r11+0x20] ; mov rsp, r11 ; pop rdi ; ret ; (2 found)
0x124f4: mov rsi, qword [rsp+0x38] ; add rsp, 0x20 ; pop rdi ; ret ; (2 found)
0x11608: mov rsi, qword [rsp+0x40] ; add rsp, 0x20 ; pop rdi ; ret ; (3 found)
0x13420: mov rsi, qword [rsp+0x50] ; add rsp, 0x30 ; pop rdi ; ret ; (2 found)
0x15975: mov rsi, qword [rsp+0x58] ; add rsp, 0x40 ; pop rdi ; ret ; (1 found)
0x162a9: mov rsi, qword [rsp+0x78] ; add rsp, 0x50 ; pop rdi ; ret ; (1 found)
0x166f9: mov rsi, qword [rsp+0x78] ; add rsp, 0x60 ; pop rdi ; ret ; (1 found)
0x1f235: mov rsp, r11 ; pop r12 ; ret ; (2 found)
0x202e2: mov rsp, r11 ; pop r13 ; ret ; (1 found)
0x147a7: mov rsp, r11 ; pop rdi ; ret ; (3 found)
0x13de2: mov word [rbx+0x18], cs ; add  [rax], eax ; add al, ch ; ret ; (1 found)
0x202e0: movsxd ebp,  [rax] ; mov rsp, r11 ; pop r13 ; ret ; (1 found)
0x13352: movsxd ecx,  [rax] ; add byte [rsi-0x7D], ah ; call qword [rax] ; (1 found)
0x12f55: mul  [rcx-0x7AB80000] ; ror byte [rdx+0x481374D8], cl ; lea ecx,  [rdi+0x12] ; call rdx ; (1 found)
0x14db5: nop ; add byte [rax], al ; add byte [rax-0x7D], cl ; retn 0x4C02 ; (1 found)
0x17549: or  [0x000000000001D4A8], 0xFFFFFFFF ; mov eax, 0xC00000BB ; ret ; (1 found)
0x15066: or  [rbp+0x03], eax ; ret ; (1 found)
0x153c5: or  [rbp+0x03], eax ; retn 0x0B41 ; (1 found)
0x15294: or  [rbp+0x03], eax ; rol  [rcx+0x33], 1 ; retn 0x3341 ; (1 found)
0x15364: or  [rcx+0x03], eax ; sal byte [rbx], 1 ; retn 0xCA33 ; (1 found)
0x155ae: or al, 0x03 ; retn 0x8941 ; (2 found)
0x1f1de: or al, 0x75 ; add al, 0x8B ; ret ; (2 found)
0x14db1: or al, 0x89 ; mov esp, 0x00009024 ; add byte [rax-0x7D], cl ; retn 0x4C02 ; (1 found)
0x154d7: or al, byte [rbp+0x03] ; fiadd  [rcx+0x0B] ; ret ; (1 found)
0x14e83: or al, byte [rbp+0x03] ; rol  [rcx+0x23], 1 ; retn 0x8B41 ; (1 found)
0x15548: or al, byte [rcx+0x03] ; ror byte [rbx], 1 ; retn 0x3341 ; (1 found)
0x16e18: or byte [r8-0x7B], cl ; sal byte [rdx+rcx+0x48], 0x2B ; ret ; (2 found)
0x155aa: or byte [r9-0x75], al ; or al, 0x03 ; retn 0x8941 ; (1 found)
0x17eb8: or byte [rax+0x0F], cl ; ret ; (1 found)
0x1f1da: or byte [rax+0x3B], cl ; or al, 0x75 ; add al, 0x8B ; ret ; (2 found)
0x167b3: or byte [rax+0x3B], cl ; ret ; (1 found)
0x16e19: or byte [rax-0x7B], cl ; sal byte [rdx+rcx+0x48], 0x2B ; ret ; (2 found)
0x12662: or byte [rax], al ; add byte [rax-0x7D], cl ; retn 0x4812 ; (1 found)
0x112d0: or byte [rbx-0x047CFE3D], al ; add al, 0x74 ; adc al, byte [rcx-0x7D] ; ret ; (1 found)
0x155ab: or byte [rcx-0x75], al ; or al, 0x03 ; retn 0x8941 ; (1 found)
0x16e1e: or cl, byte [rax+0x2B] ; ret ; (2 found)
0x131be: or cl, byte [rax-0x73] ; or eax, 0x000015EE ; call r11 ; (1 found)
0x17cd5: or cl, byte [rcx-0x01] ; enter 0x0188, 0x75 ; mov rax, r11 ; ret ; (1 found)
0x15467: or dh, bh ; rol byte [rcx+0x03], 1 ; ror byte [rbx], 1 ; retn 0x3341 ; (1 found)
0x148cc: or dh, byte [rbx+0x05] ; call r8 ; (1 found)
0x15328: or eax,  [rbp+0x03] ; fiadd  [rcx-0x75] ; ret ; (1 found)
0x14aa0: or eax,  [rcx-0x73] ; jmp qword [rsi-0x7D] ; (1 found)
0x131c1: or eax, 0x000015EE ; call r11 ; (1 found)
0x1739d: or eax, 0x00005E06 ; xor eax, eax ; add rsp, 0x28 ; ret ; (1 found)
0x163e7: or eax, 0x8B00002D ; fadd  [rbp-0x74FB8625] ; ret ; (1 found)
0x201bb: or eax, 0xFFFF1634 ; call rax ; (1 found)
0x130c3: or ecx,  [rax-0x75] ; and al, 0x30 ; add rcx, 0x12 ; call rdx ; (1 found)
0x1758c: or ecx,  [rbx+rcx*4-0x3D] ; mov rdx, rsi ; mov rcx, rbp ; call rax ; (1 found)
0x202a1: or esi,  [rcx-0x01] ; call qword [rax+0x2279FF85] ; (1 found)
0x15d7c: or esp,  [rsi-0x7B] ; sal byte [rcx+rdx+0x66], 0x89 ; add  [rax-0x7D], ecx ; retn 0x4801 ; (1 found)
0x15461: pop qword [rcx-0x75] ; retn 0xC2C1 ; (1 found)
0x13908: pop r12 ; pop rbp ; ret ; (1 found)
0x1152b: pop r12 ; pop rdi ; ret ; (12 found)
0x1f238: pop r12 ; ret ; (6 found)
0x13906: pop r13 ; pop r12 ; pop rbp ; ret ; (1 found)
0x11529: pop r13 ; pop r12 ; pop rdi ; ret ; (12 found)
0x14b4c: pop r13 ; pop r12 ; ret ; (1 found)
0x202e5: pop r13 ; ret ; (2 found)
0x15e31: pop r14 ; pop r12 ; pop rdi ; ret ; (1 found)
0x14b4a: pop r14 ; pop r13 ; pop r12 ; ret ; (1 found)
0x11d27: pop r14 ; pop r13 ; ret ; (1 found)
0x15822: pop r15 ; pop r12 ; pop rdi ; ret ; (1 found)
0x11d25: pop r15 ; pop r14 ; pop r13 ; ret ; (1 found)
0x12027: pop rax ; add rsp, 0x40 ; pop rbp ; ret ; (1 found)
0x13c15: pop rax ; add rsp, 0x40 ; pop rdi ; ret ; (2 found)
0x13907: pop rbp ; pop r12 ; pop rbp ; ret ; (1 found)
0x1152a: pop rbp ; pop r12 ; pop rdi ; ret ; (10 found)
0x14b4d: pop rbp ; pop r12 ; ret ; (1 found)
0x12367: pop rbp ; pop rbx ; ret ; (2 found)
0x1f32e: pop rbp ; ret ; (18 found)
0x1616f: pop rbp ; xor byte [rax], al ; add byte [rax+0x3B], cl ; ret ; (1 found)
0x1f02d: pop rbx ; ret ; (10 found)
0x15823: pop rdi ; pop r12 ; pop rdi ; ret ; (1 found)
0x11d26: pop rdi ; pop r14 ; pop r13 ; ret ; (1 found)
0x11a53: pop rdi ; pop rsi ; pop rbp ; ret ; (7 found)
0x16ffc: pop rdi ; pop rsi ; pop rbx ; ret ; (1 found)
0x1152d: pop rdi ; ret ; (46 found)
0x15e32: pop rsi ; pop r12 ; pop rdi ; ret ; (1 found)
0x14b4b: pop rsi ; pop r13 ; pop r12 ; ret ; (1 found)
0x11d28: pop rsi ; pop r13 ; ret ; (1 found)
0x12366: pop rsi ; pop rbp ; pop rbx ; ret ; (2 found)
0x11a54: pop rsi ; pop rbp ; ret ; (7 found)
0x16ffd: pop rsi ; pop rbx ; ret ; (1 found)
0x13909: pop rsp ; pop rbp ; ret ; (1 found)
0x1152c: pop rsp ; pop rdi ; ret ; (12 found)
0x1f239: pop rsp ; ret ; (6 found)
0x180af: pop rsp ; retn 0x4C04 ; (1 found)
0x12935: push 0x3B480000 ; ret ; (1 found)
0x12809: push 0x50C48348 ; pop rdi ; ret ; (1 found)
0x17951: push qword [rbp+0x02] ; rep ret ; (1 found)
0x201b6: push qword [rbx] ; ror byte [rax-0x73], cl ; or eax, 0xFFFF1634 ; call rax ; (1 found)
0x1f2f8: push qword [rbx] ; ror byte [rax-0x7D], 0xC4 ; pop rbx ; ret ; (1 found)
0x13425: push rax ; add rsp, 0x30 ; pop rdi ; ret ; (2 found)
0x170c5: push rax ; add rsp, 0x40 ; pop rdi ; ret ; (1 found)
0x13aa2: push rax ; pop rbp ; ret ; (1 found)
0x1280d: push rax ; pop rdi ; ret ; (3 found)
0x17ebc: push rcx ; adc byte [rax-0x7D], cl ; rol  [rax+0x48], 0x0F ; ret ; (1 found)
0x1783b: push rcx ; dec  [rax-0x7D] ; leave ; jmp qword [rsi-0x0E] ; (1 found)
0x17ec5: push rcx ; fmul  [rax+0x0F] ; ret ; (1 found)
0x17eb7: push rcx ; or byte [rax+0x0F], cl ; ret ; (1 found)
0x202fa: push rdx ; retn 0xFFFF ; (1 found)
0x14fcf: pushfq ; adc  [rbx-0x3E02678F], edx ; ret ; (1 found)
0x1794b: rcl  [rax], 0x66 ; test ecx, 0x0275FFFF ; rep ret ; (1 found)
0x17fc0: rcr  [rbx], 0xFFFFFFC0 ; sbb eax, 0xFFFFFFFF ; ret ; (1 found)
0x17954: rep ret ; (1 found)
0x1f02e: ret ; (245 found)
0x14445: retn 0x0001 ; (1 found)
0x1736d: retn 0x0008 ; (1 found)
0x15a1a: retn 0x0036 ; (1 found)
0x1415a: retn 0x0051 ; (1 found)
0x139ea: retn 0x0057 ; (1 found)
0x137ea: retn 0x0058 ; (1 found)
0x13b82: retn 0x008B ; (1 found)
0x13991: retn 0x008C ; (1 found)
0x20730: retn 0x0108 ; (1 found)
0x14950: retn 0x02EB ; (1 found)
0x14f6e: retn 0x0341 ; (3 found)
0x1503a: retn 0x0344 ; (2 found)
0x15319: retn 0x0403 ; (2 found)
0x12d72: retn 0x0812 ; (1 found)
0x153c8: retn 0x0B41 ; (2 found)
0x15ecd: retn 0x0B74 ; (1 found)
0x14e11: retn 0x0C03 ; (1 found)
0x1514e: retn 0x2305 ; (2 found)
0x14e49: retn 0x2341 ; (4 found)
0x15011: retn 0x2345 ; (1 found)
0x14d26: retn 0x2B45 ; (1 found)
0x1529a: retn 0x3341 ; (8 found)
0x1490c: retn 0x3F74 ; (1 found)
0x112df: retn 0x4102 ; (2 found)
0x15245: retn 0x4104 ; (1 found)
0x153e0: retn 0x4106 ; (1 found)
0x14e1d: retn 0x4107 ; (1 found)
0x15547: retn 0x410A ; (1 found)
0x152c1: retn 0x410B ; (1 found)
0x14ec3: retn 0x410C ; (2 found)
0x15084: retn 0x410E ; (1 found)
0x1524b: retn 0x4403 ; (7 found)
0x154bc: retn 0x4406 ; (1 found)
0x153a7: retn 0x4410 ; (1 found)
0x15312: retn 0x4504 ; (1 found)
0x14f3c: retn 0x4507 ; (1 found)
0x15d87: retn 0x4801 ; (1 found)
0x12667: retn 0x4812 ; (1 found)
0x155fe: retn 0x4904 ; (1 found)
0x14dbb: retn 0x4C02 ; (1 found)
0x14e96: retn 0x4C03 ; (2 found)
0x180b0: retn 0x4C04 ; (1 found)
0x207d4: retn 0x4D02 ; (1 found)
0x115f0: retn 0x6602 ; (2 found)
0x20bee: retn 0x7305 ; (1 found)
0x180ce: retn 0x8041 ; (1 found)
0x14d29: retn 0x8341 ; (1 found)
0x18104: retn 0x8348 ; (1 found)
0x155b1: retn 0x8941 ; (1 found)
0x14e3f: retn 0x8B41 ; (5 found)
0x117b2: retn 0x8B48 ; (3 found)
0x1139b: retn 0x8D48 ; (2 found)
0x14dd0: retn 0xC104 ; (1 found)
0x15438: retn 0xC133 ; (2 found)
0x15267: retn 0xC233 ; (1 found)
0x15243: retn 0xC2C1 ; (2 found)
0x15283: retn 0xC603 ; (2 found)
0x14e0c: retn 0xC80B ; (10 found)
0x15369: retn 0xCA33 ; (1 found)
0x14e23: retn 0xCA8B ; (2 found)
0x153dc: retn 0xD0F7 ; (4 found)
0x14ecb: retn 0xD1F7 ; (2 found)
0x15db4: retn 0xE083 ; (1 found)
0x14cfc: retn 0xE810 ; (1 found)
0x1730d: retn 0xEB01 ; (2 found)
0x13478: retn 0xF266 ; (1 found)
0x15466: retn 0xF70A ; (1 found)
0x13498: retn 0xF748 ; (2 found)
0x202ae: retn 0xFFFF ; (4 found)
0x17ec0: rol  [rax+0x48], 0x0F ; ret ; (1 found)
0x17c02: rol  [rax+0x4C], 0x0F ; ret ; (1 found)
0x15435: rol  [rcx+0x0B], 1 ; retn 0xC133 ; (2 found)
0x14ecd: rol  [rcx+0x23], 1 ; ret ; (1 found)
0x14f64: rol  [rcx+0x23], 1 ; retn 0x2341 ; (1 found)
0x14e86: rol  [rcx+0x23], 1 ; retn 0x8B41 ; (2 found)
0x15316: rol  [rcx+0x33], 1 ; retn 0x0403 ; (1 found)
0x15297: rol  [rcx+0x33], 1 ; retn 0x3341 ; (2 found)
0x15290: rol  [rcx-0x3F], 0xFFFFFFCA ; or  [rbp+0x03], eax ; rol  [rcx+0x33], 1 ; retn 0x3341 ; (1 found)
0x14e7f: rol  [rcx-0x3F], 0xFFFFFFCA ; or al, byte [rbp+0x03] ; rol  [rcx+0x23], 1 ; retn 0x8B41 ; (1 found)
0x150e3: rol  [rcx-0x3F], 1 ; ret ; (2 found)
0x1514b: rol  [rcx-0x3F], 1 ; retn 0x2305 ; (1 found)
0x14e04: rol  [rcx-0x75], 1 ; ret ; (1 found)
0x15037: rol  [rcx-0x75], 1 ; retn 0x0344 ; (1 found)
0x155a7: rol  [rcx-0x77], 0x41 ; or byte [rcx-0x75], al ; or al, 0x03 ; retn 0x8941 ; (1 found)
0x1187c: rol byte [rax+rax], 1 ; add byte [rdx], bh ; ret ; (1 found)
0x15469: rol byte [rcx+0x03], 1 ; ror byte [rbx], 1 ; retn 0x3341 ; (1 found)
0x150ae: rol byte [rcx+0x23], cl ; retn 0xC80B ; (2 found)
0x15061: rol byte [rcx-0x3F], 0xC0 ; or  [rbp+0x03], eax ; ret ; (2 found)
0x153c1: rol byte [rcx-0x3F], 1 ; enter 0x4509, 0x03 ; retn 0x0B41 ; (1 found)
0x154d3: rol byte [rcx-0x3F], 1 ; ret ; (1 found)
0x154b9: rol byte [rcx-0x3F], 1 ; retn 0x4406 ; (1 found)
0x1494d: rol byte [rcx-0x76], 1 ; retn 0x02EB ; (1 found)
0x15361: rol cl, 0xCA ; or  [rcx+0x03], eax ; sal byte [rbx], 1 ; retn 0xCA33 ; (1 found)
0x153de: rol cl, 1 ; retn 0x4106 ; (1 found)
0x15545: rol cl, 1 ; retn 0x410A ; (1 found)
0x151ce: rol ecx, 1 ; retn 0x2305 ; (1 found)
0x15082: rol ecx, 1 ; retn 0x410E ; (1 found)
0x14ec7: ror  [rbx-0x083D7436], cl ; rol  [rcx+0x23], 1 ; ret ; (1 found)
0x18016: ror  [rcx+0x63], 1 ; ret ; (1 found)
0x201b8: ror byte [rax-0x73], cl ; or eax, 0xFFFF1634 ; call rax ; (1 found)
0x14954: ror byte [rax-0x75], 0x7C ; and al, 0x08 ; ret ; (2 found)
0x15eca: ror byte [rax-0x75], cl ; retn 0x0B74 ; (1 found)
0x1f2fa: ror byte [rax-0x7D], 0xC4 ; pop rbx ; ret ; (1 found)
0x12476: ror byte [rax-0x7D], 0xC4 ; pop rdi ; ret ; (1 found)
0x14f5e: ror byte [rbx-0x083D7436], cl ; rol  [rcx+0x23], 1 ; retn 0x2341 ; (1 found)
0x153e4: ror byte [rbx], 1 ; retn 0x3341 ; (3 found)
0x12e74: ror byte [rdx+0x480674D8], cl ; lea ecx,  [rdi+0x12] ; call rdx ; (1 found)
0x130bf: ror byte [rdx+0x480B74D8], cl ; mov ecx,  [rsp+0x30] ; add rcx, 0x12 ; call rdx ; (1 found)
0x12f5b: ror byte [rdx+0x481374D8], cl ; lea ecx,  [rdi+0x12] ; call rdx ; (1 found)
0x14e3b: ror byte [rsp+rax*2+0x00], 0x03 ; retn 0x8B41 ; (1 found)
0x17b26: sal byte [rbp+0x07], 0x49 ; mov eax, ebx ; ret ; (2 found)
0x177f1: sal byte [rbp-0x10], 0x33 ; ror byte [rax-0x75], 0x7C ; and al, 0x08 ; ret ; (1 found)
0x1758a: sal byte [rbx+rcx+0x4C], 0x8B ; ret ; (1 found)
0x15367: sal byte [rbx], 1 ; retn 0xCA33 ; (1 found)
0x15249: sal byte [rbx], cl ; retn 0x4403 ; (1 found)
0x15d7f: sal byte [rcx+rdx+0x66], 0x89 ; add  [rax-0x7D], ecx ; retn 0x4801 ; (1 found)
0x16b4a: sal byte [rdi+rax*2+0x48], 0x8B ; and al, 0x38 ; call rax ; (1 found)
0x16e1c: sal byte [rdx+rcx+0x48], 0x2B ; ret ; (2 found)
0x117c4: sal byte [rsi+rcx+0x48], 0x83 ; ret ; (1 found)
0x17866: sal byte [rsp+rbx+0x48], 0x83 ; ret ; (1 found)
0x17592: salc ; mov rcx, rbp ; call rax ; (1 found)
0x1609a: sbb  [rax], eax ; add byte [rbx], bh ; ret ; (2 found)
0x1505e: sbb al, byte [rax-0x4D] ; rol byte [rcx-0x3F], 0xC0 ; or  [rbp+0x03], eax ; ret ; (1 found)
0x1553d: sbb byte [0xFFFFFFFF8BBE9035], dh ; ret ; (1 found)
0x16099: sbb eax, 0x3B000019 ; ret ; (1 found)
0x17f45: sbb eax, 0xFFFFFFFF ; ret ; (2 found)
0x17f43: sbb eax, eax ; sbb eax, 0xFFFFFFFF ; ret ; (2 found)
0x14f35: sbb eax, ebx ; cwde ; sub byte [rcx+0x41], 0xC1 ; retn 0x4507 ; (1 found)
0x128f1: sbb ebp,  [rax+0x00] ; add byte [rbx], bh ; ret ; (1 found)
0x20195: scasd ; ret ; (1 found)
0x11e33: setne al ; add rsp, 0x20 ; pop rdi ; ret ; (2 found)
0x15e6b: setnle al ; add rsp, 0x28 ; ret ; (1 found)
0x14e47: shl  [rbx], 1 ; retn 0x2341 ; (1 found)
0x151d5: shl  [rbx], cl ; retn 0xC80B ; (1 found)
0x14e21: shl byte [rbx], cl ; retn 0xCA8B ; (1 found)
0x112d5: sti ; add al, 0x74 ; adc al, byte [rcx-0x7D] ; ret ; (1 found)
0x16769: sub  [rax], eax ; add byte [rbx], bh ; ret ; (1 found)
0x14ebe: sub al, dh ; xchg  [rdi-0x3F], eax ; retn 0x410C ; (1 found)
0x15ec7: sub byte [rax-0x7B], cl ; ror byte [rax-0x75], cl ; retn 0x0B74 ; (1 found)
0x17bff: sub byte [rax-0x7D], cl ; rol  [rax+0x4C], 0x0F ; ret ; (1 found)
0x14f38: sub byte [rcx+0x41], 0xC1 ; retn 0x4507 ; (1 found)
0x1530f: sub byte [rcx-0x3F], al ; retn 0x4504 ; (1 found)
0x1298d: sub byte [rcx-0x7D], cl ; ret ; (1 found)
0x16e15: sub cl, byte [rax-0x75] ; or byte [r8-0x7B], cl ; sal byte [rdx+rcx+0x48], 0x2B ; ret ; (2 found)
0x14f56: test  [rbx+rcx*4-0x3F], 0x03410CC2 ; ror byte [rbx-0x083D7436], cl ; rol  [rcx+0x23], 1 ; retn 0x2341 ; (1 found)
0x1543f: test byte [rax], dl ; ret ; (1 found)
0x152bc: test eax, 0xC14BDECF ; retn 0x410B ; (1 found)
0x151c9: test eax, 0xF7CB8B41 ; rol ecx, 1 ; retn 0x2305 ; (1 found)
0x1794e: test ecx, 0x0275FFFF ; rep ret ; (1 found)
0x1530e: wait ; sub byte [rcx-0x3F], al ; retn 0x4504 ; (1 found)
0x14ec0: xchg  [rdi-0x3F], eax ; retn 0x410C ; (1 found)
0x14f53: xchg eax, esp ; adc  [rdi-0x3E74BB09], ebp ; retn 0x410C ; (1 found)
0x152ba: xchg eax, esp ; add byte [rcx-0x3EB42131], ch ; retn 0x410B ; (1 found)
0x1553c: xchg eax, esp ; sbb byte [0xFFFFFFFF8BBE9035], dh ; ret ; (1 found)
0x1f2d5: xchg edi, edi ; call qword [rax+0x244C8B48] ; (2 found)
0x14953: xor al, al ; mov rdi, qword [rsp+0x08] ; ret ; (1 found)
0x15f7c: xor al, byte [rax] ; add byte [rax+0x3B], cl ; ret ; (1 found)
0x16170: xor byte [rax], al ; add byte [rax+0x3B], cl ; ret ; (1 found)
0x14b49: xor byte [rcx+0x5E], al ; pop r13 ; pop r12 ; ret ; (1 found)
0x15821: xor byte [rcx+0x5F], al ; pop r12 ; pop rdi ; ret ; (1 found)
0x11d24: xor byte [rcx+0x5F], al ; pop r14 ; pop r13 ; ret ; (1 found)
0x1618f: xor eax, 0x3AFFFFFE ; ret ; (1 found)
0x1553e: xor eax, 0x8BBD3AF2 ; ret ; (1 found)
0x1f027: xor eax, eax ; add rsp, 0x20 ; pop rbx ; ret ; (1 found)
0x12749: xor eax, eax ; add rsp, 0x28 ; ret ; (2 found)
0x1f2f9: xor eax, eax ; add rsp, 0x40 ; pop rbx ; ret ; (1 found)
0x12475: xor eax, eax ; add rsp, 0x40 ; pop rdi ; ret ; (1 found)
0x177f4: xor eax, eax ; mov rdi, qword [rsp+0x08] ; ret ; (1 found)
0x13318: xor eax, eax ; ret ; (3 found)
0x148d4: xor edx, edx ; call r8 ; (1 found)
0x201b7: xor edx, edx ; lea rcx, qword [0x00000000000117F4] ; call rax ; (1 found)
0x17f3f: xor rax, rax ; ret ; (1 found)
