Trying to open '..\hal.dll'..
Loading PE information..
FileFormat: PE, Arch: x64

Wait a few seconds, rp++ is looking for gadgets (2 threads max)..
A total of 16549 gadgets found.
You decided to keep only the unique ones, 5352 unique gadgets found.
0x7dc64: aaa ; add byte [rax], al ; ret ; (1 found)
0x34fc5: aaa ; ret ; (1 found)
0x1bf54: aaa ; retn 0xFFFE ; (1 found)
0x2d395: aaa ; test eax, 0x83480003 ; retn 0x8008 ; (1 found)
0x81505: aad 0xFA ; call qword [rax-0x0035C717] ; (2 found)
0x82260: aam 0x36 ; sti ; call qword [rax-0x00218217] ; (1 found)
0xb32f: aam 0x3B ; ret ; (1 found)
0x81248: aam 0x61 ; stc ; call qword [rax-0x00390317] ; (1 found)
0x1a337: aam 0xFF ; call qword [rax-0x01564817] ; (1 found)
0x81d4d: aam 0xFF ; inc  [rbx-0x7BF0C007] ; ret ; (1 found)
0x369ce: aas ; add cl, byte [rdi] ; xchg eax, esp ; ret ; (1 found)
0x13d42: aas ; add eax, 0xC4834800 ; ret ; (1 found)
0x14b54: aas ; add rax, rdx ; add eax, r10d ; ret ; (1 found)
0x163df: adc  [rax+0x01B00000], edi ; ret ; (1 found)
0x38ba6: adc  [rax+0x3B], ecx ; ret ; (1 found)
0x32cd3: adc  [rax-0x01], ecx ; retn 0x8D4A ; (2 found)
0x32d32: adc  [rax-0x7D], ecx ; retn 0x4A02 ; (2 found)
0x32ca5: adc  [rax-0x7D], ecx ; retn 0x8A0B ; (1 found)
0x32d55: adc  [rax-0x7D], ecx ; retn 0x8A14 ; (1 found)
0x32d04: adc  [rax-0x7D], ecx ; retn 0x8A16 ; (1 found)
0x32cf4: adc  [rax-0x7D], ecx ; retn 0xEB0A ; (1 found)
0x11594: adc  [rax], eax ; add byte [rax+0x00000001], bh ; add rsp, 0x28 ; ret ; (1 found)
0x2c76a: adc  [rax], eax ; add byte [rax+0x0B], cl ; retn 0x8549 ; (1 found)
0x7f659: adc  [rbp+rcx-0x7D], esi ; stc ; sbb  [rcx+rbp-0x75], esi ; ret ; (1 found)
0x1c523: adc  [rcx+0x0F], eax ; mov edx, 0xE18110E9 ; add byte [rax+0x0F410000], al ; retn 0x8B44 ; (1 found)
0x17d24: adc  [rcx+rax-0x10], eax ; ret ; (1 found)
0x1d24: adc  [rcx-0x7CB70FBD], ecx ; ret ; (1 found)
0x2edbb: adc  [rcx], ecx ; add byte [rdi], cl ; mov  [rax+r10+0x000911E1], edx ; ret ; (1 found)
0x7f49f: adc  [rdx-0x3FCC0008], edx ; add rsp, 0x38 ; ret ; (1 found)
0x7f35f: adc  [rsp-0x7D], esi ; call qword [rbx] ; (1 found)
0x86d0: adc al, 0x00 ; add byte [rax], al ; add rsp, 0x48 ; ret ; (1 found)
0x486c: adc al, 0x00 ; ret ; (1 found)
0x2fead: adc al, 0x01 ; add byte [rax], al ; mov  [r8+0x00000118], r9d ; ret ; (1 found)
0xc826: adc al, 0x01 ; add byte [rcx-0x76], al ; retn 0x8B48 ; (1 found)
0x12a52: adc al, 0x0F ; mov bh, 0x49 ; cmp ch, al ; ret ; (2 found)
0x83bd9: adc al, 0x24 ; xor eax, eax ; ret ; (1 found)
0x11c73: adc al, 0x48 ; add esp, 0x28 ; ret ; (2 found)
0x24830: adc al, 0x4D ; add byte [rax], al ; add rsp, 0x28 ; ret ; (1 found)
0x32d59: adc al, 0x8A ; ret ; (1 found)
0x32aee: adc al, 0xEE ; ret ; (1 found)
0x19a05: adc al, 0xFF ; call qword [rax-0x01629317] ; (1 found)
0x116a6: adc al, byte [rax] ; add byte [rax+0x00000001], bh ; add rsp, 0x28 ; ret ; (1 found)
0x88e85: adc al, ch ; mov ebx, 0x8BFFF8E1 ; ret ; (1 found)
0x37b6a: adc bh, bh ; adc eax, 0x00039D4F ; add rsp, 0x38 ; ret ; (1 found)
0x2d7f2: adc bh, bh ; adc eax, 0x000440C7 ; add rsp, 0x28 ; ret ; (1 found)
0x2c200: adc bh, bh ; adc eax, 0x000456B9 ; add rsp, 0x28 ; ret ; (1 found)
0x8304a: adc bh, bh ; adc eax, 0xFFFEE86F ; add rsp, 0x38 ; ret ; (1 found)
0x164f1: adc bh, bh ; retn 0x8349 ; (1 found)
0x3254c: adc bh, bh ; ror byte [rax-0x7D], 0xC1 ; sbb byte [rbx], bh ; retn 0xF172 ; (1 found)
0x32e37: adc bh, dh ; retn 0xFFF8 ; (1 found)
0x124f8: adc bl, al ; mov  [rax], edx ; ret ; (1 found)
0x124f5: adc bl, al ; mov byte [rax], dl ; ret ; (1 found)
0x8200e: adc bl, bh ; call qword [rax-0x00331A17] ; (1 found)
0x4aa1: adc byte [r11+0x33D2F7D0], cl ; rol byte [rbx-0x2FCCFE1E], 1 ; mov  [rcx+0x10], edx ; ret ; (1 found)
0x473ba: adc byte [r11], spl ; retn 0xE2D3 ; (3 found)
0x469b7: adc byte [r13-0x75], al ; fiadd  [rcx-0x75] ; retn 0x20B9 ; (1 found)
0x27f23: adc byte [r8-0x73], cl ; add al, 0xC8 ; ret ; (1 found)
0x7bd1b: adc byte [r8-0x7D], r9L ; retn 0xE814 ; (1 found)
0x11732: adc byte [r9+0x0F], al ; xchg eax, ebp ; retn 0xE083 ; (2 found)
0x4ae1: adc byte [r9], al ; ret ; (1 found)
0x1d0ce: adc byte [rax+0x03], cl ; retn 0x8941 ; (1 found)
0x176bc: adc byte [rax+rax], al ; add bh, bh ; add al, 0x5F ; ret ; (1 found)
0x28efc: adc byte [rax-0x007F], cl ; ret ; (2 found)
0x25f4e: adc byte [rax-0x007F], cl ; retn 0x0098 ; (1 found)
0x170b8: adc byte [rax-0x3F], cl ; rcl  [rax], 0x66 ; test ecx, 0x0175FFFF ; ret ; (1 found)
0x27f24: adc byte [rax-0x73], cl ; add al, 0xC8 ; ret ; (1 found)
0x171f9: adc byte [rax-0x75], cl ; adc byte [rbx-0x74B7F7B8], cl ; or byte [rdx-0x09FCFEAC], cl ; retn 0x740F ; (1 found)
0x8d670: adc byte [rax-0x75], cl ; ret ; (1 found)
0x1428c: adc byte [rax-0x77], cl ; adc eax, 0x00053D2C ; add rsp, 0x28 ; ret ; (1 found)
0x1f285: adc byte [rax-0x7D], cl ; retn 0x4838 ; (1 found)
0x42530: adc byte [rax-0x7D], cl ; retn 0x4948 ; (1 found)
0x7bd1c: adc byte [rax-0x7D], cl ; retn 0xE814 ; (1 found)
0x20d32: adc byte [rax], al ; add bl, al ; mov eax, 0x00000004 ; ret ; (1 found)
0x31f49: adc byte [rax], al ; add byte [rax-0x75], cl ; or byte [r8+0x03], cl ; retn 0x8948 ; (1 found)
0x1d09a: adc byte [rax], al ; add byte [rax-0x75], cl ; retn 0xFF25 ; (1 found)
0x7a142: adc byte [rax], al ; add byte [rax], al ; ret ; (1 found)
0x5538: adc byte [rax], al ; add byte [rbp+0x2B], al ; ror byte [rbp+rcx*4+0x34], 1 ; retn 0x8B41 ; (1 found)
0x33615: adc byte [rax], al ; add byte [rbx+0x0FCA3BC1], cl ; retn 0x4389 ; (2 found)
0xb328: adc byte [rax], al ; add byte [rbx], ch ; retn 0x8B41 ; (1 found)
0xb61e: adc byte [rax], al ; add byte [rcx-0x75], al ; fld  [rcx+0x2B] ; ret ; (1 found)
0x15eb1: adc byte [rbp+0x0275240C], al ; pop rcx ; ret ; (1 found)
0x341cf: adc byte [rbp+0x3B], al ; ret ; (2 found)
0x469b8: adc byte [rbp-0x75], al ; fiadd  [rcx-0x75] ; retn 0x20B9 ; (1 found)
0x23d38: adc byte [rbp-0x75], al ; retn 0x01BA ; (2 found)
0x23d37: adc byte [rbp-0x75], r8L ; retn 0x01BA ; (2 found)
0x7a11f: adc byte [rbx+0x06], dh ; mov eax, 0xC0000023 ; ret ; (1 found)
0x4686b: adc byte [rbx+0x0B41FEE0], al ; ret ; (2 found)
0x4aa2: adc byte [rbx+0x33D2F7D0], cl ; rol byte [rbx-0x2FCCFE1E], 1 ; mov  [rcx+0x10], edx ; ret ; (1 found)
0x171fc: adc byte [rbx-0x74B7F7B8], cl ; or byte [rdx-0x09FCFEAC], cl ; retn 0x740F ; (2 found)
0x473bb: adc byte [rbx], ah ; retn 0xE2D3 ; (3 found)
0x11813: adc byte [rbx], dh ; retn 0xE083 ; (1 found)
0x11812: adc byte [rbx], sil ; retn 0xE083 ; (1 found)
0x1c528: adc byte [rcx+0x008000E1], al ; add byte [rcx+0x0F], al ; retn 0x8B44 ; (1 found)
0xe71f: adc byte [rcx+0x0B], al ; retn 0x8948 ; (1 found)
0x4779b: adc byte [rcx+0x0F], al ; xchg eax, ebp ; ret ; (2 found)
0x11733: adc byte [rcx+0x0F], al ; xchg eax, ebp ; retn 0xE083 ; (2 found)
0x163b3: adc byte [rcx-0x3C3FCCFF], cl ; mov eax, 0xC000009A ; ret ; (1 found)
0x8fe85: adc byte [rcx-0x75], al ; ror byte [rbx-0x1F3EB73B], cl ; add cl, byte [rcx+0x3B] ; retn 0x460F ; (1 found)
0x30734: adc byte [rcx], al ; add byte [rax], al ; pop rdi ; ret ; (1 found)
0x4ae2: adc byte [rcx], al ; ret ; (1 found)
0x4a93: adc byte [rcx], cl ; ret ; (2 found)
0xae57: adc byte [rdi+rcx+0x44], al ; enter 0x8B41, 0xC1 ; ret ; (1 found)
0x467a: adc byte [rdi], cl ; add  [rcx], edi ; mov rax, rcx ; ret ; (1 found)
0x77546: adc byte [rdx-0x1A], dh ; mov eax, 0xC0000225 ; ret ; (1 found)
0x4a83: adc byte [rdx], cl ; ret ; (2 found)
0xa394: adc byte [rsp+rax*4+0x00], al ; sal byte [rbp+0x01], cl ; ret ; (1 found)
0xa393: adc byte [rsp+rax*4+0x00], r8L ; sal byte [rbp+0x01], cl ; ret ; (1 found)
0x841c5: adc cl, byte [rax-0x007F] ; retn 0x0098 ; (1 found)
0x839b9: adc cl, byte [rax-0x007F] ; retn 0x00A8 ; (1 found)
0x32dab: adc cl, byte [rax-0x7D] ; retn 0x330C ; (1 found)
0x32ddb: adc cl, byte [rax-0x7D] ; retn 0x3318 ; (1 found)
0x32be1: adc cl, byte [rax-0x7D] ; retn 0x4114 ; (1 found)
0x32bd2: adc cl, byte [rax-0x7D] ; retn 0xEB0A ; (1 found)
0x8f77e: adc cl, byte [rbx-0x7B73C43E] ; add  [rax], eax ; add byte [rdi+rax-0x01], dh ; retn 0x3B41 ; (1 found)
0x3787f: adc cl, byte [rcx+0x3B] ; sal  [rbp-0x18], 1 ; xor al, al ; ret ; (1 found)
0x3b0a0: adc cl, byte [rcx-0x7D] ; retn 0x4008 ; (1 found)
0x32e09: adc cl, byte [rdi] ; retn 0xCCC3 ; (1 found)
0x7861f: adc cl, byte [rdi] ; sub  [rdx-0x4F000031], 0x01 ; ret ; (1 found)
0x46ca: adc dh, 0x00 ; add byte [rax], al ; ret ; (1 found)
0x4a72: adc dh, bh ; ret ; (1 found)
0x3cf1: adc dh, byte [rdx+rcx+0x03] ; ret ; (1 found)
0x44d5b: adc dh, dh ; retn 0x7402 ; (1 found)
0x44d7b: adc dh, dh ; retn 0x7404 ; (1 found)
0x2c1ff: adc dil, dil ; adc eax, 0x000456B9 ; add rsp, 0x28 ; ret ; (1 found)
0x486ae: adc eax,  [rbx+0x067404FA] ; mov eax, 0xC0000001 ; ret ; (2 found)
0x80b4c: adc eax,  [rbx+0x07741DF9] ; xor eax, eax ; add rsp, 0x28 ; ret ; (1 found)
0x45382: adc eax,  [rcx-0x09] ; retn 0x0800 ; (1 found)
0x45989: adc eax, 0x0002497E ; mov al, dl ; add rsp, 0x28 ; ret ; (1 found)
0x48c8e: adc eax, 0x0002847D ; nop  [rax+rax+0x00] ; add rsp, 0x28 ; ret ; (1 found)
0x45b85: adc eax, 0x0002BD36 ; add rsp, 0x38 ; ret ; (1 found)
0x45a4d: adc eax, 0x0002BE6E ; add rsp, 0x38 ; ret ; (1 found)
0x44999: adc eax, 0x0002CF22 ; add rsp, 0x28 ; ret ; (1 found)
0x42110: adc eax, 0x0002F7AB ; add rsp, 0x38 ; ret ; (1 found)
0x420b2: adc eax, 0x0002F809 ; xor eax, eax ; add rsp, 0x38 ; ret ; (1 found)
0x2fb39: adc eax, 0x00034D9A ; add rsp, 0x28 ; ret ; (1 found)
0x385cc: adc eax, 0x000392EF ; add rsp, 0x28 ; ret ; (1 found)
0x385ae: adc eax, 0x0003930D ; add rsp, 0x28 ; ret ; (1 found)
0x37d31: adc eax, 0x00039352 ; nop  [rax+rax+0x00] ; add rsp, 0x38 ; ret ; (1 found)
0x384df: adc eax, 0x000393DC ; add rsp, 0x68 ; ret ; (1 found)
0x38477: adc eax, 0x00039444 ; add rsp, 0x48 ; ret ; (1 found)
0x38017: adc eax, 0x000398A4 ; xor eax, eax ; add rsp, 0x38 ; ret ; (1 found)
0x37fdc: adc eax, 0x000398DF ; xor eax, eax ; add rsp, 0x38 ; ret ; (1 found)
0x37d73: adc eax, 0x00039B48 ; xor eax, eax ; add rsp, 0x38 ; ret ; (1 found)
0x37b6c: adc eax, 0x00039D4F ; add rsp, 0x38 ; ret ; (1 found)
0x36bb3: adc eax, 0x0003AD08 ; add rsp, 0x20 ; pop rbx ; ret ; (1 found)
0x36973: adc eax, 0x0003AF48 ; add rsp, 0x28 ; ret ; (1 found)
0x359be: adc eax, 0x0003BEFD ; add rsp, 0x28 ; ret ; (1 found)
0x35997: adc eax, 0x0003BF24 ; add rsp, 0x28 ; ret ; (1 found)
0x35960: adc eax, 0x0003BF5B ; add rsp, 0x28 ; ret ; (1 found)
0x357d2: adc eax, 0x0003C0E9 ; add rsp, 0x28 ; ret ; (1 found)
0x35756: adc eax, 0x0003C165 ; add rsp, 0x28 ; ret ; (1 found)
0x2fae6: adc eax, 0x0004159D ; nop  [rax+rax+0x00] ; add rsp, 0x38 ; ret ; (1 found)
0x301c9: adc eax, 0x000416F2 ; and  [0x000000000006A148], 0x00000000 ; add rsp, 0x28 ; ret ; (1 found)
0x2fd40: adc eax, 0x00041803 ; nop  [rax+rax+0x00] ; add rsp, 0x48 ; ret ; (1 found)
0x2e63d: adc eax, 0x00042AD6 ; nop  [rax+rax+0x00] ; add rsp, 0x28 ; ret ; (1 found)
0x2eb8c: adc eax, 0x00042D2F ; add rsp, 0x28 ; ret ; (1 found)
0x2d7f4: adc eax, 0x000440C7 ; add rsp, 0x28 ; ret ; (1 found)
0x2ca27: adc eax, 0x00044E94 ; add rsp, 0x48 ; ret ; (1 found)
0x2c9ec: adc eax, 0x00044ECF ; add rsp, 0x28 ; ret ; (1 found)
0x2c0fc: adc eax, 0x0004544F ; nop  [rax+rax+0x00] ; add rsp, 0x28 ; ret ; (1 found)
0x2c202: adc eax, 0x000456B9 ; add rsp, 0x28 ; ret ; (1 found)
0x2c1d7: adc eax, 0x000456E4 ; add rsp, 0x28 ; ret ; (1 found)
0x29ed3: adc eax, 0x000479E8 ; add rsp, 0x38 ; ret ; (1 found)
0x22866: adc eax, 0x0004E85D ; nop  [rax+rax+0x00] ; add rsp, 0x28 ; ret ; (1 found)
0x1428f: adc eax, 0x00053D2C ; add rsp, 0x28 ; ret ; (1 found)
0x16f51: adc eax, 0x0005A492 ; nop  [rax+rax+0x00] ; add rsp, 0x28 ; ret ; (1 found)
0x16fbd: adc eax, 0x0005A8FE ; add rsp, 0x38 ; ret ; (1 found)
0x16c28: adc eax, 0x0005AC93 ; add rsp, 0x30 ; pop rbx ; ret ; (1 found)
0x1681d: adc eax, 0x0005B09E ; add rsp, 0x38 ; ret ; (1 found)
0x13d7b: adc eax, 0x0005D390 ; nop  [rax+rax+0x00] ; add rsp, 0x28 ; ret ; (1 found)
0xbd59: adc eax, 0x0006537A ; nop  [rax+rax+0x00] ; add rsp, 0x28 ; ret ; (1 found)
0xbf59: adc eax, 0x00065962 ; add rsp, 0x38 ; ret ; (1 found)
0xbdd5: adc eax, 0x00065AE6 ; add rsp, 0x28 ; ret ; (1 found)
0x9eb6: adc eax, 0x00067A05 ; add rsp, 0x28 ; ret ; (1 found)
0x9e81: adc eax, 0x00067A3A ; add rsp, 0x28 ; ret ; (1 found)
0x9e53: adc eax, 0x00067A68 ; add rsp, 0x28 ; ret ; (1 found)
0x9ce6: adc eax, 0x00067BD5 ; add rsp, 0x28 ; ret ; (1 found)
0x8bed: adc eax, 0x000688BE ; nop  [rax+rax+0x00] ; add rsp, 0x28 ; ret ; (1 found)
0x84a9: adc eax, 0x00069412 ; add rsp, 0x30 ; pop rcx ; ret ; (1 found)
0x5c23: adc eax, 0x0006B460 ; nop  [rax+rax+0x00] ; add rsp, 0x38 ; ret ; (1 found)
0x4ebd: adc eax, 0x0006C9FE ; add rsp, 0x28 ; ret ; (1 found)
0x43f3: adc eax, 0x0006CCD8 ; nop  [rax+rax+0x00] ; add rsp, 0x28 ; ret ; (1 found)
0x42f6: adc eax, 0x0006CDD5 ; nop  [rax+rax+0x00] ; add rsp, 0x28 ; ret ; (1 found)
0x4258: adc eax, 0x0006D663 ; add rsp, 0x28 ; ret ; (1 found)
0x2ae1: adc eax, 0x0006EDDA ; add rsp, 0x28 ; ret ; (1 found)
0x11e3: adc eax, 0x000706D8 ; add rsp, 0x20 ; pop rbx ; ret ; (1 found)
0x2fae8: adc eax, 0x1F0F0004 ; add byte [rax], r8L ; add rsp, 0x38 ; ret ; (1 found)
0x2e9ce: adc eax, 0x48000000 ; add esp, 0x30 ; pop rbx ; ret ; (1 found)
0x3397: adc eax, 0x4800013D ; add esp, 0x20 ; pop rbx ; ret ; (1 found)
0x80a2a: adc eax, 0xC0331B74 ; add rsp, 0x28 ; ret ; (1 found)
0x1c01c: adc eax, 0xE9000000 ; mov al, byte [0x0D3B404D8BFFFEC3] ; retn 0x04BC ; (1 found)
0x8c646: adc eax, 0xFFFE519D ; nop  [rax+rax+0x00] ; add rsp, 0x38 ; ret ; (1 found)
0x89b82: adc eax, 0xFFFE7589 ; nop  [rax+rax+0x00] ; add rsp, 0x38 ; ret ; (1 found)
0x8304c: adc eax, 0xFFFEE86F ; add rsp, 0x38 ; ret ; (1 found)
0x8256d: adc eax, 0xFFFEED9E ; nop  [rax+rax+0x00] ; add rsp, 0x28 ; ret ; (1 found)
0x7e4a9: adc eax, 0xFFFF3412 ; add rsp, 0x28 ; ret ; (1 found)
0x7bafa: adc eax, 0xFFFF5DC1 ; add rsp, 0x00000000000000B8 ; ret ; (1 found)
0x7b5d0: adc eax, 0xFFFF607B ; nop  [rax+rax+0x00] ; add rsp, 0x38 ; ret ; (1 found)
0x7b5a6: adc eax, 0xFFFF609D ; nop  [rax+rax+0x00] ; add rsp, 0x28 ; ret ; (1 found)
0x7b586: adc eax, 0xFFFF60B5 ; nop  [rax+rax+0x00] ; add rsp, 0x28 ; ret ; (1 found)
0x7a5f1: adc eax, 0xFFFF6DE2 ; nop  [rax+rax+0x00] ; add rsp, 0x28 ; ret ; (1 found)
0x781e6: adc eax, 0xFFFF928D ; nop  [rax+rax+0x00] ; add rsp, 0x38 ; ret ; (1 found)
0x75018: adc eax, 0xFFFFC8A3 ; add rsp, 0x38 ; ret ; (1 found)
0x47e1: adc eax, esi ; or  [rsp+0x00], 0x00000000 ; ret ; (3 found)
0x2b2b4: adc ecx,  [rax+0x69] ; rol  [rax], 0x46 ; ret ; (1 found)
0x10d2b: adc ecx,  [rax-0x75] ; retn 0x8B48 ; (1 found)
0x2688e: adc ecx,  [rax-0x75] ; xor byte [rcx+0x23], cl ; ret ; (1 found)
0x25ede: adc ecx,  [rcx-0x75] ; rol byte [rcx-0x007F], 1 ; ret ; (1 found)
0x2c06c: adc edi,  [rax-0x00000002] ; lock xadd  [0x000000000006A060], eax ; mov eax, 0xC0000001 ; ret ; (1 found)
0x85281: adc edi, edi ; retn 0x3B41 ; (1 found)
0x7f364: adc esi,  [rdx+rdx-0x75] ; ret ; (1 found)
0x23514: adc esi, esi ; retn 0x7501 ; (1 found)
0x37b69: adc r15L, dil ; adc eax, 0x00039D4F ; add rsp, 0x38 ; ret ; (1 found)
0x2d7f1: adc r15L, dil ; adc eax, 0x000440C7 ; add rsp, 0x28 ; ret ; (1 found)
0x83049: adc r15L, dil ; adc eax, 0xFFFEE86F ; add rsp, 0x38 ; ret ; (1 found)
0x88e84: adc r8L, r13L ; mov ebx, 0x8BFFF8E1 ; ret ; (1 found)
0x44d7a: adc sil, sil ; retn 0x7404 ; (1 found)
0x70cf: add  [gs:r8], r8d ; add rsp, 0x30 ; pop rbx ; ret ; (1 found)
0x82b34: add  [r10-0x1F3FF6BE], ecx ; add ecx,  [rdx] ; enter 0x8841, 0x09 ; ret ; (1 found)
0x8ffba: add  [r11], edi ; retn 0x0273 ; (1 found)
0x48681: add  [r8], eax ; ror byte [rax-0x7D], 0xC4 ; xor byte [rcx+0x5E], al ; ret ; (1 found)
0x70d0: add  [r8], r8d ; add rsp, 0x30 ; pop rbx ; ret ; (1 found)
0x40f58: add  [rax+0x00000001], edi ; ret ; (1 found)
0x1502a: add  [rax+0x00000002], edi ; ret ; (1 found)
0x40f8f: add  [rax+0x00000004], edi ; ret ; (1 found)
0x9e24: add  [rax+0x01890000], esi ; mov  [rcx+0x04], r8d ; ret ; (1 found)
0x3ca3c: add  [rax+0x0B], ecx ; retn 0x8949 ; (1 found)
0x4523a: add  [rax+0x23], ecx ; retn 0x0B49 ; (1 found)
0x28f92: add  [rax+rax], 0x00441F0F ; add byte [rax-0x007F], cl ; ret ; (1 found)
0x7f7c8: add  [rax+rcx-0x75], esi ; ret ; (1 found)
0x2efb9: add  [rax-0x3C3FCCFE], ecx ; mov eax, 0xC0000001 ; ret ; (1 found)
0x3b012: add  [rax-0x3FCD3CFF], esi ; ret ; (1 found)
0x45d4: add  [rax-0x3FFFFF45], edi ; ret ; (1 found)
0x31f59: add  [rax-0x73], ecx ; sbb byte [r8+0x03], cl ; retn 0x8948 ; (1 found)
0x31fcf: add  [rax-0x75], ecx ; retn 0xC148 ; (1 found)
0x76bc5: add  [rax-0x7B], ecx ; ror byte [rdi], 0x84 ; ret ; (1 found)
0x48787: add  [rax-0x7D], ecx ; retn 0x0F02 ; (1 found)
0x313dd: add  [rax], 0x4C000001 ; mov  [rcx+0x00000108], ecx ; ret ; (1 found)
0x26450: add  [rax], eax ; add al, al ; add rsp, 0x28 ; ret ; (2 found)
0x2d214: add  [rax], eax ; add al, al ; cmovne eax, ecx ; ret ; (1 found)
0x1c5ea: add  [rax], eax ; add al, al ; ret ; (7 found)
0x83a2d: add  [rax], eax ; add bh, bh ; ret ; (1 found)
0x12541: add  [rax], eax ; add byte [rax+0x00000001], bh ; add rsp, 0x28 ; ret ; (1 found)
0x2c77d: add  [rax], eax ; add byte [rax+0x0B], cl ; retn 0x894C ; (1 found)
0x1e0b9: add  [rax], eax ; add byte [rax+0x63], cl ; ret ; (1 found)
0x11598: add  [rax], eax ; add byte [rax], al ; add rsp, 0x28 ; ret ; (6 found)
0x751b1: add  [rax], eax ; add byte [rax], al ; ret ; (9 found)
0x2fc1b: add  [rax], eax ; add byte [rax], al ; xor eax, eax ; ret ; (2 found)
0x7d06b: add  [rax], eax ; add byte [rbp-0x75], al ; retn 0x8341 ; (1 found)
0x2ea1a: add  [rax], eax ; add byte [rbx+0x15FF48D3], cl ; retn 0x0429 ; (1 found)
0x601a: add  [rax], eax ; add byte [rbx+0x5D], bl ; pop rcx ; ret ; (1 found)
0x8fbde: add  [rax], eax ; add byte [rbx-0x74BEDBF4], cl ; ret ; (1 found)
0xf71e: add  [rax], eax ; add byte [rbx], ah ; retn 0x2C8D ; (1 found)
0x31df9: add  [rax], eax ; add byte [rbx], dh ; rol byte [rbx-0x6BF0FD02], cl ; retn 0x8D4C ; (1 found)
0x7f94b: add  [rax], eax ; add byte [rcx+0x0F], al ; mov  [0x8B00000120820FCC], eax ; ret ; (1 found)
0x8e9f1: add  [rax], eax ; add byte [rcx+0x3B], al ; ret ; (1 found)
0x43e18: add  [rax], eax ; add byte [rcx-0x75], cl ; fmul  [rax-0x75] ; retn 0x8B48 ; (1 found)
0x5869: add  [rax], eax ; add byte [rcx-0x75], cl ; ror byte [rcx-0x75], cl ; retn 0xC148 ; (1 found)
0x36545: add  [rax], eax ; add byte [rdi+0x5E], bl ; pop rbp ; ret ; (1 found)
0x8f784: add  [rax], eax ; add byte [rdi+rax-0x01], dh ; retn 0x3B41 ; (2 found)
0x1c1c5: add  [rax], eax ; add byte [rdi], cl ; mov edx, 0x830F08E0 ; retn 0x0001 ; (1 found)
0x28d6a: add  [rax], eax ; add byte [rdi], cl ; xchg eax, esp ; retn 0xFF48 ; (1 found)
0x454fd: add  [rax], eax ; add byte [rdx], ah ; retn 0xC23A ; (1 found)
0x42ede: add  [rax], eax ; add byte [rsi+0x3B], ah ; sal  [rbp+0x55], 0xFFFFFF8A ; ret ; (1 found)
0xc107: add  [rax], eax ; add rax, rax ; mov eax,  [r8+rax*8+0x08] ; ret ; (1 found)
0x67b8: add  [rax], eax ; add rsp, 0x0000000000000090 ; pop rbp ; ret ; (1 found)
0x3399: add  [rax], eax ; add rsp, 0x20 ; pop rbx ; ret ; (3 found)
0x2b30: add  [rax], eax ; add rsp, 0x28 ; ret ; (5 found)
0x122b: add  [rax], eax ; add rsp, 0x30 ; pop rbx ; ret ; (3 found)
0x2ea97: add  [rax], eax ; mov al, 0x01 ; add rsp, 0x28 ; ret ; (1 found)
0x50d7: add  [rax], eax ; mov al, 0x01 ; ret ; (1 found)
0xae01: add  [rax], eax ; mov eax, 0x00000001 ; ret ; (1 found)
0x181e: add  [rax], eax ; mov rax, qword [rcx+0x48] ; ret ; (1 found)
0x9c07: add  [rax], eax ; ret ; (4 found)
0x48682: add  [rax], eax ; ror byte [rax-0x7D], 0xC4 ; xor byte [rcx+0x5E], al ; ret ; (1 found)
0x80deb: add  [rax], eax ; shr cl, 0xE2 ; retn 0xFFFF ; (1 found)
0x490c: add  [rax], eax ; wrmsr ; xor eax, eax ; ret ; (2 found)
0x8b68: add  [rax], eax ; xor al, al ; add rsp, 0x28 ; ret ; (1 found)
0x2b10: add  [rax], eax ; xor eax, eax ; add rsp, 0x28 ; ret ; (2 found)
0x9fc9: add  [rax], eax ; xor eax, eax ; ret ; (1 found)
0x4944: add  [rax], eax ; xor edx, edx ; wrmsr ; ret ; (1 found)
0x36cfb: add  [rbp+0x03], esi ; xor al, al ; ret ; (1 found)
0x12983: add  [rbp+0x05], esi ; and  [rcx+0x78], 0x00000000 ; ret ; (1 found)
0x90187: add  [rbp+0x06], esi ; mov byte [0x000000000006A088], al ; add rsp, 0x28 ; ret ; (2 found)
0x152fa: add  [rbp+0x07], esi ; mov  [0x0000000000067F28], r8d ; and  [0x0000000000067F28], 0xFFFFFFFC ; ret ; (1 found)
0x124f0: add  [rbp+0x07], esi ; mov word [rax], dx ; ret ; (1 found)
0x1262d: add  [rbp+0x0C], esi ; movzx eax, word [rdx] ; mov  [rcx+0x6C], eax ; ret ; (1 found)
0x3e9c7: add  [rbp+0x3B], eax ; ret ; (2 found)
0x27fd3: add  [rbp-0x0A], esi ; mov qword [rax+0x08], r8 ; mov rax, rcx ; ret ; (1 found)
0x17aeb: add  [rbp-0x0E], esi ; mov rax, r11 ; ret ; (1 found)
0x83b4c: add  [rbp-0x1C], esi ; ret ; (1 found)
0x3fc2a: add  [rbp-0x1C], esi ; xor eax, eax ; ret ; (1 found)
0x880f9: add  [rbp-0x22], esi ; add rsp, 0x30 ; pop rbx ; ret ; (1 found)
0x351ed: add  [rbp-0x33], esi ; ret ; (1 found)
0x34e8e: add  [rbp-0x34], esi ; ret ; (1 found)
0xd2d7: add  [rbp-0x3D], esi ; mov rax, r9 ; ret ; (1 found)
0x5b04: add  [rbp-0x46], esi ; add rsp, 0x20 ; pop rbx ; ret ; (1 found)
0xc1ad: add  [rbp-0x75], eax ; ret ; (1 found)
0x11d5c: add  [rbx+0x7C], ecx ; add rsp, 0x20 ; pop rbx ; ret ; (1 found)
0x123ba: add  [rbx-0x1F3EFE1E], eax ; add al, 0x0B ; retn 0xE0C1 ; (1 found)
0x8ffbb: add  [rbx], edi ; retn 0x0273 ; (1 found)
0x12a02: add  [rbx], edi ; retn 0x870F ; (2 found)
0x22776: add  [rbx], esi ; shr al, cl ; retn 0xFF10 ; (1 found)
0x4522e: add  [rbx], esp ; retn 0x0B41 ; (1 found)
0x1f830: add  [rbx], esp ; retn 0x4589 ; (1 found)
0x1f81a: add  [rbx], esp ; retn 0xFE3D ; (1 found)
0x3cee: add  [rcx+0x3B], eax ; adc dh, byte [rdx+rcx+0x03] ; ret ; (1 found)
0xbaf7: add  [rcx+0x3B], eax ; retn 0x850F ; (1 found)
0x43fc6: add  [rcx+0x3B], eax ; retn 0xF77C ; (1 found)
0x8527f: add  [rcx+rdx-0x01], esi ; retn 0x3B41 ; (1 found)
0x8c965: add  [rcx-0x01], eax ; retn 0x3B45 ; (1 found)
0x14fbe: add  [rcx-0x3FCC8BBF], ecx ; ret ; (1 found)
0x1027d: add  [rcx-0x75], eax ; ret ; (1 found)
0x8daab: add  [rcx-0x75], eax ; retn 0xE0C1 ; (3 found)
0x16dfa: add  [rcx-0x77], ecx ; or bl, al ; xor al, al ; ret ; (1 found)
0x3afab: add  [rcx-0x77], ecx ; or cl, byte [rcx-0x7D] ; retn 0x8408 ; (2 found)
0x16df4: add  [rcx], eax ; add byte [rax], al ; add byte [rax+0x08894901], dh ; ret ; (1 found)
0x467c: add  [rcx], edi ; mov rax, rcx ; ret ; (1 found)
0x1026e: add  [rdi+0x01], esi ; ret ; (1 found)
0x10991: add  [rdi+0x04], esi ; or  [rdx+0x0C], 0x02 ; ret ; (1 found)
0x8a436: add  [rdi], ecx ; test  [rsi-0x74FFFFCA], esp ; retn 0x8948 ; (1 found)
0x152f1: add  [rdi], ecx ; test bh, cl ; retn 0x0000 ; (1 found)
0x152e8: add  [rdi], ecx ; test bh, dh ; retn 0x0000 ; (1 found)
0x14702: add  [rdi], ecx ; test byte [rcx+rcx*8+0x00], dh ; add byte [rax-0x75], cl ; ret ; (1 found)
0x5e32: add  [rdi], ecx ; xchg eax, esp ; retn 0x15FF ; (1 found)
0x3e03a: add  [rdi], ecx ; xchg eax, esp ; retn 0xE9C0 ; (1 found)
0x28c23: add  [rdi], ecx ; xchg eax, esp ; retn 0xFF48 ; (1 found)
0x40ff9: add  [rdx+0x00000CFC], edi ; out dx, eax ; mov eax, 0x00000004 ; ret ; (1 found)
0x3c18c: add  [rdx+rax*2-0x0A], esi ; retn 0x7503 ; (1 found)
0x7a1c0: add  [rdx+rcx-0x10], esi ; dec  [0x000000000006A060] ; xor eax, eax ; ret ; (1 found)
0x82e29: add  [rdx-0x07], 0xFFFFFFFF ; add rsp, 0x48 ; ret ; (1 found)
0x82b35: add  [rdx-0x1F3FF6BE], ecx ; add ecx,  [rdx] ; enter 0x8841, 0x09 ; ret ; (1 found)
0x32bcc: add  [rdx-0x74B6113F], ecx ; adc cl, byte [rax-0x7D] ; retn 0xEB0A ; (1 found)
0x3533: add  [rdx], edi ; mov rax, rdx ; add rsp, 0x38 ; ret ; (1 found)
0x1226a: add  [rdx], edi ; ror  [rax+0x0F382444], 0xFFFFFF92 ; ret ; (1 found)
0x8ffb0: add  [rdx], esp ; rol  [rax+rax*8+0x0F410974], 0xFFFFFFB6 ; add  [r11], edi ; retn 0x0273 ; (1 found)
0x15309: add ah, bh ; ret ; (1 found)
0x4b3c: add ah, ch ; ret ; (1 found)
0x2eff6: add ah, cl ; add rsp, 0x28 ; ret ; (1 found)
0x3813a: add ah, cl ; add rsp, 0x30 ; pop rbx ; ret ; (2 found)
0x29e54: add ah, cl ; add rsp, 0x68 ; ret ; (1 found)
0x2b71b: add ah, cl ; mov eax, ecx ; add rsp, 0x38 ; ret ; (1 found)
0x3fda8: add ah, cl ; xor eax, eax ; add rsp, 0x38 ; ret ; (1 found)
0x1c01a: add al, 0x00 ; adc eax, 0xE9000000 ; mov al, byte [0x0D3B404D8BFFFEC3] ; retn 0x04BC ; (1 found)
0x90073: add al, 0x00 ; add al, al ; mov  [r8], r9d ; ret ; (1 found)
0x176bd: add al, 0x00 ; add bh, bh ; add al, 0x5F ; ret ; (1 found)
0x27ce2: add al, 0x00 ; add bh, bh ; ret ; (1 found)
0xa77a: add al, 0x00 ; add byte [rax+0x0B], cl ; retn 0x8549 ; (1 found)
0x3e00c: add al, 0x00 ; add byte [rax-0x75], cl ; add byte [rax+0x3B], cl ; retn 0xEE75 ; (1 found)
0x8df7a: add al, 0x00 ; add byte [rax], al ; ret ; (6 found)
0x120bd: add al, 0x00 ; add byte [rbp-0x75], cl ; retn 0x8D48 ; (1 found)
0x2c1da: add al, 0x00 ; add rsp, 0x28 ; ret ; (7 found)
0x29ed6: add al, 0x00 ; add rsp, 0x38 ; ret ; (1 found)
0x2ca29: add al, 0x00 ; add rsp, 0x48 ; ret ; (2 found)
0x301cc: add al, 0x00 ; and  [0x000000000006A148], 0x00000000 ; add rsp, 0x28 ; ret ; (1 found)
0x2b34f: add al, 0x00 ; lea rcx, qword [rbp-0x28] ; mov rax, qword [rax+0x08] ; call rax ; (1 found)
0x446c: add al, 0x00 ; mov  [rdx+rax*8], 0x00000002 ; ret ; (2 found)
0x4a55: add al, 0x00 ; mov qword [rcx], rax ; xor eax, eax ; ret ; (1 found)
0x22869: add al, 0x00 ; nop  [rax+rax+0x00] ; add rsp, 0x28 ; ret ; (3 found)
0x2fae9: add al, 0x00 ; nop  [rax+rax+0x00] ; add rsp, 0x38 ; ret ; (1 found)
0x2fd43: add al, 0x00 ; nop  [rax+rax+0x00] ; add rsp, 0x48 ; ret ; (1 found)
0x484b: add al, 0x02 ; ret ; (1 found)
0x9165: add al, 0x02 ; rol byte [rcx+0x02], cl ; rol  [rbp+0x22], 1 ; ret ; (1 found)
0x45a18: add al, 0x08 ; mov eax, r8d ; ret ; (1 found)
0x17765: add al, 0x09 ; mov  [rdx], eax ; mov eax, 0x00000004 ; ret ; (1 found)
0x17725: add al, 0x09 ; mov byte [rdx], al ; mov eax, 0x00000001 ; ret ; (1 found)
0x17787: add al, 0x09 ; mov eax, 0x00000001 ; ret ; (1 found)
0x177a9: add al, 0x09 ; mov eax, 0x00000002 ; ret ; (1 found)
0x177c7: add al, 0x09 ; mov eax, 0x00000004 ; ret ; (1 found)
0x17746: add al, 0x09 ; mov word [rdx], ax ; mov eax, 0x00000002 ; ret ; (1 found)
0x123c0: add al, 0x0B ; retn 0xE0C1 ; (1 found)
0x8f643: add al, 0x0F ; retn 0x3B44 ; (1 found)
0x32e08: add al, 0x12 ; cmove eax, edx ; ret ; (1 found)
0x7b48f: add al, 0x24 ; ret ; (1 found)
0x7d44a: add al, 0x24 ; xor eax, eax ; ret ; (1 found)
0x75371: add al, 0x25 ; ret ; (2 found)
0x3cf9: add al, 0x3B ; ret ; (1 found)
0x1433e: add al, 0x41 ; mov eax, eax ; ret ; (1 found)
0x8ba01: add al, 0x49 ; mov  [rax], eax ; ret ; (2 found)
0x176c1: add al, 0x5F ; ret ; (2 found)
0x32e5e: add al, 0x72 ; clc ; xor al, al ; ret ; (1 found)
0x350e4: add al, 0x72 ; out 0xFF, eax ; ret ; (1 found)
0x8d2c: add al, 0x74 ; or dh, dh ; ret ; (1 found)
0x338cf: add al, 0x74 ; or edi, edi ; ret ; (4 found)
0x2edb4: add al, 0x80 ; mov byte [rax+r10+0x000911E0], 0x0F ; mov  [rax+r10+0x000911E1], edx ; ret ; (1 found)
0x12966: add al, 0x81 ; ret ; (1 found)
0x10993: add al, 0x83 ; or al, 0x02 ; ret ; (1 found)
0xa395: add al, 0x84 ; sal byte [rbp+0x01], cl ; ret ; (1 found)
0x12972: add al, 0x88 ; ret ; (1 found)
0x41c32: add al, 0x89 ; or r8L, sil ; or  [rsp+0x00], 0x00000000 ; ret ; (1 found)
0x34811: add al, 0x8B ; add ecx,  [rcx+0x0D8D4806] ; ret ; (1 found)
0x2c1a7: add al, 0x8B ; and al, 0x30 ; add rsp, 0x28 ; ret ; (1 found)
0x8a733: add al, 0x8B ; pop rbp ; add al, 0x8B ; ret ; (1 found)
0x8a736: add al, 0x8B ; ret ; (1 found)
0x78444: add al, 0x8B ; retn 0x06EB ; (5 found)
0x446f: add al, 0xC2 ; add al, byte [rax] ; add byte [rax], al ; ret ; (2 found)
0x8daa9: add al, 0xC6 ; add  [rcx-0x75], eax ; retn 0xE0C1 ; (1 found)
0x3db8b: add al, 0xC8 ; mov rbx, qword [rsp+0x08] ; mov rax, r8 ; ret ; (2 found)
0x27f27: add al, 0xC8 ; ret ; (1 found)
0x333a: add al, 0xCA ; shl rax, 0x0C ; add rax, qword [r9-0x0A] ; ret ; (1 found)
0x439e: add al, 0xEB ; retn 0x8944 ; (1 found)
0x813fc: add al, 0xFF ; call qword [rax-0x0037E117] ; (1 found)
0x2348a: add al, al ; add rsp, 0x0000000000000080 ; pop rbx ; ret ; (1 found)
0x23665: add al, al ; add rsp, 0x0000000000000088 ; ret ; (1 found)
0x8f0a5: add al, al ; add rsp, 0x20 ; pop rbx ; ret ; (8 found)
0x8c60a: add al, al ; add rsp, 0x20 ; pop rdi ; ret ; (3 found)
0x7b0b4: add al, al ; add rsp, 0x28 ; ret ; (10 found)
0x48683: add al, al ; add rsp, 0x30 ; pop r14 ; ret ; (1 found)
0x2b1ed: add al, al ; add rsp, 0x30 ; pop rbx ; ret ; (1 found)
0x8ba6b: add al, al ; add rsp, 0x38 ; ret ; (2 found)
0x357ad: add al, al ; add rsp, 0x40 ; pop rbx ; ret ; (1 found)
0x7b649: add al, al ; add rsp, 0x58 ; ret ; (1 found)
0x2d216: add al, al ; cmovne eax, ecx ; ret ; (1 found)
0x90075: add al, al ; mov  [r8], r9d ; ret ; (1 found)
0x7a681: add al, al ; mov eax, ecx ; add rsp, 0x28 ; ret ; (1 found)
0x2d211: add al, al ; mov ecx, 0xC0000001 ; cmovne eax, ecx ; ret ; (1 found)
0x3fc9b: add al, al ; mov rbx, qword [rsp+0x08] ; mov rdi, qword [rsp+0x10] ; ret ; (1 found)
0x751a3: add al, al ; ret ; (38 found)
0x7630e: add al, byte [r8+r8*8-0x74BBFC8B] ; ret ; (1 found)
0x4598b: add al, byte [r8] ; mov al, dl ; add rsp, 0x28 ; ret ; (1 found)
0x7630f: add al, byte [rax+rax*8-0x74BBFC8B] ; ret ; (1 found)
0x8df79: add al, byte [rax+rax] ; add byte [rax], al ; ret ; (1 found)
0x36cf9: add al, byte [rax] ; add  [rbp+0x03], esi ; xor al, al ; ret ; (1 found)
0x7b3c1: add al, byte [rax] ; add al, al ; add rsp, 0x28 ; ret ; (3 found)
0x7b647: add al, byte [rax] ; add al, al ; add rsp, 0x58 ; ret ; (1 found)
0x4831: add al, byte [rax] ; add al, al ; ret ; (2 found)
0x6106: add al, byte [rax] ; add bh, bh ; ret ; (1 found)
0x3c8b8: add al, byte [rax] ; add byte [rax+0x0B], cl ; retn 0x8B4C ; (1 found)
0x8c898: add al, byte [rax] ; add byte [rax+0x63], cl ; ret ; (1 found)
0x169ad: add al, byte [rax] ; add byte [rax-0x7B], cl ; ror byte [rdi], 0x95 ; ret ; (1 found)
0x3c097: add al, byte [rax] ; add byte [rax], al ; cmove rax, rcx ; ret ; (1 found)
0x4471: add al, byte [rax] ; add byte [rax], al ; ret ; (6 found)
0x25b0: add al, byte [rax] ; add byte [rdi+0x5B], bl ; pop rcx ; ret ; (2 found)
0x7b04d: add al, byte [rax] ; add byte [rdi+rcx+0x44], al ; ret ; (1 found)
0x45b18: add al, byte [rax] ; add rsp, 0x20 ; pop rbx ; ret ; (1 found)
0x4499c: add al, byte [rax] ; add rsp, 0x28 ; ret ; (1 found)
0x42113: add al, byte [rax] ; add rsp, 0x38 ; ret ; (3 found)
0x4598c: add al, byte [rax] ; mov al, dl ; add rsp, 0x28 ; ret ; (1 found)
0x3f710: add al, byte [rax] ; mov al, dl ; ret ; (1 found)
0x45a13: add al, byte [rax] ; movzx r8d, byte [rax+rcx] ; mov eax, r8d ; ret ; (1 found)
0x48c91: add al, byte [rax] ; nop  [rax+rax+0x00] ; add rsp, 0x28 ; ret ; (1 found)
0x37e15: add al, byte [rax] ; ret ; (1 found)
0x420b5: add al, byte [rax] ; xor eax, eax ; add rsp, 0x38 ; ret ; (1 found)
0x17781: add al, byte [rbp-0x75] ; enter 0x8842, 0x04 ; or  [rax+0x00000001], edi ; ret ; (1 found)
0x177c1: add al, byte [rbp-0x75] ; enter 0x8942, 0x04 ; or  [rax+0x00000004], edi ; ret ; (1 found)
0x47148: add al, byte [rbx+rcx-0x3F] ; mov  [rdi+0x10], r8d ; mov rdi, qword [rsp+0x18] ; ret ; (1 found)
0x11c41: add al, byte [rcx+0x03] ; retn 0x4189 ; (1 found)
0xfe28: add al, byte [rcx+0x3B] ; ret ; (1 found)
0x7f49d: add al, ch ; adc  [rdx-0x3FCC0008], edx ; add rsp, 0x38 ; ret ; (1 found)
0x1ea3b: add al, ch ; call qword [rcx-0x3FCC0001] ; (1 found)
0x1bf4a: add al, ch ; mov al, byte [0x37880FC085000076] ; retn 0xFFFE ; (1 found)
0x33545: add al, ch ; mov ecx, 0x48FFFFFC ; add esp, 0x38 ; ret ; (1 found)
0x800a8: add al, ch ; push rsi ; stc ; jmp qword [rbp+0x48] ; (1 found)
0x703f: add al, ch ; ret ; (4 found)
0xe078: add al, ch ; retn 0x009B ; (1 found)
0x2f208: add al, ch ; retn 0xFFFD ; (1 found)
0x40d70: add al, ch ; sub bl, byte [rsp+rdi*8-0x01] ; add rsp, 0x38 ; ret ; (1 found)
0x35e95: add al, ch ; test eax, 0x48FFFFC1 ; add esp, 0x28 ; ret ; (1 found)
0x3bb77: add al, dh ; dec  [rax+0x23] ; ret ; (1 found)
0x3e672: add al, dh ; dec  [rax+0x23] ; retn 0xC148 ; (1 found)
0x7d446: add al, dh ; or  [rsp+0x00], r8d ; xor eax, eax ; ret ; (1 found)
0x8df77: add bh, al ; add al, byte [rax+rax] ; add byte [rax], al ; ret ; (1 found)
0x45a4b: add bh, bh ; adc eax, 0x0002BE6E ; add rsp, 0x38 ; ret ; (1 found)
0x385ca: add bh, bh ; adc eax, 0x000392EF ; add rsp, 0x28 ; ret ; (1 found)
0x385ac: add bh, bh ; adc eax, 0x0003930D ; add rsp, 0x28 ; ret ; (1 found)
0x36971: add bh, bh ; adc eax, 0x0003AF48 ; add rsp, 0x28 ; ret ; (1 found)
0x35995: add bh, bh ; adc eax, 0x0003BF24 ; add rsp, 0x28 ; ret ; (1 found)
0x2eb8a: add bh, bh ; adc eax, 0x00042D2F ; add rsp, 0x28 ; ret ; (1 found)
0x16fbb: add bh, bh ; adc eax, 0x0005A8FE ; add rsp, 0x38 ; ret ; (1 found)
0x1681b: add bh, bh ; adc eax, 0x0005B09E ; add rsp, 0x38 ; ret ; (1 found)
0xbf57: add bh, bh ; adc eax, 0x00065962 ; add rsp, 0x38 ; ret ; (1 found)
0xbdd3: add bh, bh ; adc eax, 0x00065AE6 ; add rsp, 0x28 ; ret ; (1 found)
0x9e7f: add bh, bh ; adc eax, 0x00067A3A ; add rsp, 0x28 ; ret ; (1 found)
0x9e51: add bh, bh ; adc eax, 0x00067A68 ; add rsp, 0x28 ; ret ; (1 found)
0x9ce4: add bh, bh ; adc eax, 0x00067BD5 ; add rsp, 0x28 ; ret ; (1 found)
0x4ebb: add bh, bh ; adc eax, 0x0006C9FE ; add rsp, 0x28 ; ret ; (1 found)
0x4256: add bh, bh ; adc eax, 0x0006D663 ; add rsp, 0x28 ; ret ; (1 found)
0x2adf: add bh, bh ; adc eax, 0x0006EDDA ; add rsp, 0x28 ; ret ; (1 found)
0x176bf: add bh, bh ; add al, 0x5F ; ret ; (1 found)
0x16f87: add bh, bh ; add eax,  [rax] ; add byte [rax-0x3FCD3CFF], dh ; ret ; (1 found)
0x3bd07: add bh, bh ; dec  [rbp+0x33] ; retn 0x234C ; (1 found)
0x1ecc2: add bh, bh ; jmp qword [rbp+0x48] ; (1 found)
0x35a5: add bh, bh ; jmp qword [rbx] ; (1 found)
0x7da65: add bh, bh ; ret ; (16 found)
0x20195: add bh, bh ; retn 0x47C7 ; (2 found)
0x112a5: add bh, bh ; retn 0x5189 ; (18 found)
0x48258: add bh, bh ; retn 0xC1FF ; (1 found)
0x164a0: add bh, bh ; ror  [rcx+0x01B04048], 0x48 ; add esp, 0x28 ; ret ; (2 found)
0x17728: add bh, byte [rax+0x00000001] ; ret ; (1 found)
0x1774a: add bh, byte [rax+0x00000002] ; ret ; (1 found)
0x17768: add bh, byte [rax+0x00000004] ; ret ; (1 found)
0x40ffe: add bh, ch ; mov eax, 0x00000004 ; ret ; (1 found)
0x3af8a: add bh, dh ; fmul  [rax-0x75] ; retn 0x1B48 ; (1 found)
0x2aad: add bh, dh ; retn 0x0000 ; (1 found)
0x1339d: add bl, al ; and  [0x0000000000064D90], 0x00000000 ; lea rax, qword [0x0000000000064D90] ; ret ; (1 found)
0xc150: add bl, al ; lock or  [rdx], r8d ; ret ; (1 found)
0x20d3a: add bl, al ; mov eax, 0x00000003 ; ret ; (1 found)
0x20d34: add bl, al ; mov eax, 0x00000004 ; ret ; (1 found)
0x7b679: add bl, al ; or eax, 0xFFFFFFFF ; ret ; (2 found)
0x8163b: add bl, bh ; call qword [rax-0x0034F017] ; (1 found)
0x7fb5f: add bl, byte [0xFFFFFFFF8D5129DA] ; or byte [rax+0x03], cl ; retn 0x8B48 ; (1 found)
0x829d6: add bl, byte [0xFFFFFFFF8D515451] ; or byte [rax+0x03], cl ; retn 0x8B48 ; (1 found)
0x15eb6: add bl, byte [rcx-0x3D] ; sti ; pop rcx ; ret ; (1 found)
0x4398: add bl, ch ; enter 0x8944, 0x5A ; add al, 0xEB ; retn 0x8944 ; (1 found)
0x11d06: add bl, ch ; retn 0x8948 ; (1 found)
0x1352a: add byte [0xFFFFFFFFABF43530], al ; add rsp, 0x20 ; pop rdi ; ret ; (1 found)
0x39f8b: add byte [0xFFFFFFFFC0039F93], al ; ret ; (1 found)
0x1c01b: add byte [0xFFFFFFFFE901C021], dl ; mov al, byte [0x0D3B404D8BFFFEC3] ; retn 0x04BC ; (1 found)
0x782c6: add byte [gs:rax], al ; add rsp, 0x28 ; ret ; (1 found)
0x24831: add byte [r8], r8L ; add rsp, 0x28 ; ret ; (1 found)
0x111f0: add byte [rax+0x00000001], bh ; add rsp, 0x20 ; pop rbx ; ret ; (4 found)
0x11596: add byte [rax+0x00000001], bh ; add rsp, 0x28 ; ret ; (4 found)
0xae02: add byte [rax+0x00000001], bh ; ret ; (1 found)
0x156d7: add byte [rax+0x03], cl ; add eax, 0x000526F1 ; add rsp, 0x28 ; ret ; (1 found)
0x2444b: add byte [rax+0x03], cl ; ret ; (1 found)
0x16df8: add byte [rax+0x08894901], dh ; ret ; (1 found)
0x31ea4: add byte [rax+0x0B], cl ; retn 0x00BA ; (1 found)
0x4135c: add byte [rax+0x0B], cl ; retn 0x0348 ; (1 found)
0x1c4c3: add byte [rax+0x0B], cl ; retn 0x2348 ; (2 found)
0x2c73c: add byte [rax+0x0B], cl ; retn 0x8548 ; (1 found)
0xa77c: add byte [rax+0x0B], cl ; retn 0x8549 ; (2 found)
0x2c77f: add byte [rax+0x0B], cl ; retn 0x894C ; (1 found)
0x819a0: add byte [rax+0x0B], cl ; retn 0x8B48 ; (2 found)
0x3c8ba: add byte [rax+0x0B], cl ; retn 0x8B4C ; (2 found)
0x48714: add byte [rax+0x0C83F001], cl ; and al, 0x00 ; xor eax, eax ; ret ; (1 found)
0x1c52b: add byte [rax+0x0F410000], al ; retn 0x8B44 ; (1 found)
0x81900: add byte [rax+0x0F], cl ; mov edx, 0x0B4814F0 ; retn 0x8B48 ; (2 found)
0x2fc95: add byte [rax+0x23], cl ; retn 0x3B48 ; (1 found)
0x17150: add byte [rax+0x23], cl ; retn 0xBA48 ; (2 found)
0x1aafa: add byte [rax+0x23], cl ; ror byte [rax-0x75], 1 ; retn 0xC148 ; (1 found)
0x2b98f: add byte [rax+0x2B], cl ; retn 0xB841 ; (1 found)
0x3c753: add byte [rax+0x33], cl ; ret ; (2 found)
0x8384a: add byte [rax+0x3B], cl ; ret ; (3 found)
0x3dffb: add byte [rax+0x3B], cl ; retn 0x1674 ; (1 found)
0x96fb: add byte [rax+0x3B], cl ; retn 0x2C74 ; (1 found)
0x9f79: add byte [rax+0x3B], cl ; retn 0x840F ; (1 found)
0x298b4: add byte [rax+0x3B], cl ; retn 0xEE75 ; (2 found)
0x2b38c: add byte [rax+0x48FFFFF7], al ; mov eax, 0x05D7BEA7 ; retn 0x109E ; (1 found)
0x8c89a: add byte [rax+0x63], cl ; ret ; (2 found)
0x815fd: add byte [rax+0x69], cl ; ret ; (1 found)
0x1e6a1: add byte [rax+0x79850F20], ch ; idiv dh ; jmp qword [rbp-0x75] ; (1 found)
0x755a4: add byte [rax+rax*8+0x301D850F], al ; add byte [rax], al ; add rsp, 0x38 ; ret ; (1 found)
0xa3c0: add byte [rax+rax*8+0x48C0950F], al ; add esp, 0x28 ; ret ; (1 found)
0x327a: add byte [rax+rax*8-0x74BA9A8B], al ; ret ; (1 found)
0xa779: add byte [rax+rax], al ; add byte [rax+0x0B], cl ; retn 0x8549 ; (1 found)
0x2082f: add byte [rax+rax], cl ; add byte [rax], al ; mov eax, 0xC000000D ; ret ; (1 found)
0x1172c: add byte [rax+rdi+0x51], al ; sbb  [rbx+0x0F411041], ecx ; xchg eax, ebp ; retn 0xE083 ; (1 found)
0x821ba: add byte [rax-0x00224E17], dl ; jmp qword [rbp-0x75] ; (1 found)
0x8270f: add byte [rax-0x007F], cl ; ret ; (6 found)
0x3bf8: add byte [rax-0x007F], cl ; retn 0x0FFF ; (1 found)
0x3f6a: add byte [rax-0x007F], cl ; retn 0x1023 ; (2 found)
0x1502: add byte [rax-0x007F], cl ; retn 0x967F ; (1 found)
0x1805a: add byte [rax-0x016BDE17], dl ; jmp qword [rbp-0x75] ; (1 found)
0x18093: add byte [rax-0x016BE017], dl ; jmp qword [rbp-0x75] ; (1 found)
0x1ab4b: add byte [rax-0x09], cl ; fimul  [rax+0x23] ; ror byte [rax-0x75], 1 ; retn 0xC148 ; (3 found)
0x405b6: add byte [rax-0x09], cl ; ret ; (1 found)
0x163e2: add byte [rax-0x3FCD3CFF], dh ; ret ; (2 found)
0x20823: add byte [rax-0x3FFFFDDB], bh ; ret ; (1 found)
0x7948f: add byte [rax-0x3FFFFFDD], bh ; ret ; (1 found)
0x20833: add byte [rax-0x3FFFFFF3], bh ; ret ; (1 found)
0x2c079: add byte [rax-0x3FFFFFFF], bh ; ret ; (1 found)
0x133a5: add byte [rax-0x73], cl ; add eax, 0x000519E3 ; ret ; (1 found)
0x2110d: add byte [rax-0x73], cl ; and cl, byte [r9+0x3B] ; retn 0x2C77 ; (1 found)
0x31fe0: add byte [rax-0x75], al ; retn 0xC148 ; (1 found)
0x3e00e: add byte [rax-0x75], cl ; add byte [rax+0x3B], cl ; retn 0xEE75 ; (1 found)
0x13d3d: add byte [rax-0x75], cl ; add eax, 0x00053F6B ; add rsp, 0x48 ; ret ; (1 found)
0x2abb: add byte [rax-0x75], cl ; add eax, 0x00065175 ; mov  [rax+0x00000300], edx ; ret ; (1 found)
0xba63: add byte [rax-0x75], cl ; and al, 0x60 ; add rsp, 0x58 ; ret ; (1 found)
0x2b375: add byte [rax-0x75], cl ; enter 0xFFF0, 0x0D ; insb ; ret ; (1 found)
0x2b480: add byte [rax-0x75], cl ; enter 0xFFF0, 0x0D ; insd ; retn 0x0003 ; (1 found)
0x31f4b: add byte [rax-0x75], cl ; or byte [r8+0x03], cl ; retn 0x8948 ; (1 found)
0x176df: add byte [rax-0x75], cl ; or eax, 0x00050551 ; mov  [rcx+0x000000B0], 0x00000000 ; ret ; (1 found)
0x1cca9: add byte [rax-0x75], cl ; or ecx, ebp ; iretq ; (1 found)
0x75261: add byte [rax-0x75], cl ; ret ; (19 found)
0x35956: add byte [rax-0x75], cl ; retn 0x44C6 ; (1 found)
0x34077: add byte [rax-0x75], cl ; retn 0x45EB ; (1 found)
0x33d74: add byte [rax-0x75], cl ; retn 0x4EEB ; (1 found)
0x3b0e5: add byte [rax-0x75], cl ; retn 0x8B4C ; (1 found)
0x84b1d: add byte [rax-0x75], cl ; retn 0xC148 ; (3 found)
0x1d09c: add byte [rax-0x75], cl ; retn 0xFF25 ; (1 found)
0x3aef3: add byte [rax-0x75], cl ; sal  [rbx+rax+0x32], 0xFFFFFFC0 ; ret ; (1 found)
0x5318: add byte [rax-0x77], cl ; add eax, 0x00060AF8 ; add rsp, 0x28 ; ret ; (1 found)
0x4500: add byte [rax-0x77], cl ; add eax, 0x00063128 ; ret ; (1 found)
0x44f9: add byte [rax-0x77], cl ; add eax, 0x00063137 ; mov qword [0x0000000000067630], rax ; ret ; (1 found)
0x3a063: add byte [rax-0x77], cl ; pop rbp ; xor byte [rax-0x75], cl ; ret ; (1 found)
0x33b80: add byte [rax-0x77], cl ; ror byte [r8-0x75], 1 ; ror byte [rax-0x75], 1 ; retn 0xC148 ; (1 found)
0x3480c: add byte [rax-0x7B], cl ; div byte [rsp+rax-0x75] ; add ecx,  [rcx+0x0D8D4806] ; ret ; (1 found)
0x266c8: add byte [rax-0x7B], cl ; rol byte [rdi+rcx+0x44], cl ; rol  [rcx-0x76], 0xFFFFFFC0 ; ret ; (1 found)
0x219ec: add byte [rax-0x7B], cl ; ror byte [rdi], 0x84 ; retn 0xFF42 ; (1 found)
0x169af: add byte [rax-0x7B], cl ; ror byte [rdi], 0x95 ; ret ; (1 found)
0x788ef: add byte [rax-0x7B], cl ; sal byte [rax+rcx+0x48], 0x03 ; fsubr st0, st1 ; retn 0xFFD6 ; (1 found)
0x4252b: add byte [rax-0x7B], cl ; sal byte [rax+rdx+0x48], 0x83 ; retn 0x4948 ; (1 found)
0x3a50f: add byte [rax-0x7B], cl ; sal byte [rbp+rbx*2+0x44], 0x8B ; ret ; (1 found)
0x7dfb0: add byte [rax-0x7D], cl ; ret ; (7 found)
0x1d3bc: add byte [rax-0x7D], cl ; retn 0x4106 ; (1 found)
0x1fcf8: add byte [rax-0x7D], cl ; retn 0x4418 ; (1 found)
0x114ad: add byte [rax-0x7D], cl ; retn 0x441C ; (1 found)
0xfe31: add byte [rax-0x7D], cl ; retn 0x4C10 ; (1 found)
0x14252: add byte [rax-0x7D], cl ; retn 0x4DE8 ; (1 found)
0x2d398: add byte [rax-0x7D], cl ; retn 0x8008 ; (1 found)
0xff7b: add byte [rax-0x7D], cl ; retn 0x8B40 ; (1 found)
0x20192: add byte [rax], 0x00 ; add bh, bh ; retn 0x47C7 ; (2 found)
0x1d22a: add byte [rax], 0x00 ; add byte [rbx+rbx*8+0x0FCF8B48], al ; xchg eax, esp ; retn 0x91E8 ; (1 found)
0x1cf8: add byte [rax], 0x00 ; add byte [rdi+0x5E], bl ; pop rbp ; ret ; (1 found)
0x14fbc: add byte [rax], al ; add  [rcx-0x3FCC8BBF], ecx ; ret ; (1 found)
0x4b3a: add byte [rax], al ; add ah, ch ; ret ; (1 found)
0x1ea39: add byte [rax], al ; add al, ch ; call qword [rcx-0x3FCC0001] ; (1 found)
0x2d471: add byte [rax], al ; add al, ch ; ret ; (2 found)
0xe076: add byte [rax], al ; add al, ch ; retn 0x009B ; (1 found)
0x2f206: add byte [rax], al ; add al, ch ; retn 0xFFFD ; (1 found)
0x3e670: add byte [rax], al ; add al, dh ; dec  [rax+0x23] ; retn 0xC148 ; (1 found)
0x4c9d: add byte [rax], al ; add bh, bh ; ret ; (2 found)
0x20193: add byte [rax], al ; add bh, bh ; retn 0x47C7 ; (2 found)
0x3af88: add byte [rax], al ; add bh, dh ; fmul  [rax-0x75] ; retn 0x1B48 ; (1 found)
0x20d38: add byte [rax], al ; add bl, al ; mov eax, 0x00000003 ; ret ; (1 found)
0x7b677: add byte [rax], al ; add bl, al ; or eax, 0xFFFFFFFF ; ret ; (2 found)
0x39f89: add byte [rax], al ; add byte [0xFFFFFFFFC0039F93], al ; ret ; (1 found)
0x171b4: add byte [rax], al ; add byte [rax+0x00000001], bh ; add rsp, 0x28 ; ret ; (1 found)
0x16df6: add byte [rax], al ; add byte [rax+0x08894901], dh ; ret ; (1 found)
0x31ea2: add byte [rax], al ; add byte [rax+0x0B], cl ; retn 0x00BA ; (1 found)
0x4135a: add byte [rax], al ; add byte [rax+0x0B], cl ; retn 0x0348 ; (1 found)
0x421ec: add byte [rax], al ; add byte [rax+0x0B], cl ; retn 0x8B4C ; (1 found)
0x818fe: add byte [rax], al ; add byte [rax+0x0F], cl ; mov edx, 0x0B4814F0 ; retn 0x8B48 ; (2 found)
0x17167: add byte [rax], al ; add byte [rax+0x23], cl ; retn 0xBA48 ; (1 found)
0x1aaf8: add byte [rax], al ; add byte [rax+0x23], cl ; ror byte [rax-0x75], 1 ; retn 0xC148 ; (1 found)
0x83848: add byte [rax], al ; add byte [rax+0x3B], cl ; ret ; (1 found)
0x2b38a: add byte [rax], al ; add byte [rax+0x48FFFFF7], al ; mov eax, 0x05D7BEA7 ; retn 0x109E ; (1 found)
0x1e69f: add byte [rax], al ; add byte [rax+0x79850F20], ch ; idiv dh ; jmp qword [rbp-0x75] ; (1 found)
0x3278: add byte [rax], al ; add byte [rax+rax*8-0x74BA9A8B], al ; ret ; (1 found)
0x3f68: add byte [rax], al ; add byte [rax-0x007F], cl ; retn 0x1023 ; (1 found)
0x1500: add byte [rax], al ; add byte [rax-0x007F], cl ; retn 0x967F ; (1 found)
0x405b4: add byte [rax], al ; add byte [rax-0x09], cl ; ret ; (1 found)
0x20821: add byte [rax], al ; add byte [rax-0x3FFFFDDB], bh ; ret ; (1 found)
0x20831: add byte [rax], al ; add byte [rax-0x3FFFFFF3], bh ; ret ; (1 found)
0x2110b: add byte [rax], al ; add byte [rax-0x73], cl ; and cl, byte [r9+0x3B] ; retn 0x2C77 ; (1 found)
0x8aeef: add byte [rax], al ; add byte [rax-0x75], cl ; ret ; (1 found)
0x35954: add byte [rax], al ; add byte [rax-0x75], cl ; retn 0x44C6 ; (1 found)
0x3b0e3: add byte [rax], al ; add byte [rax-0x75], cl ; retn 0x8B4C ; (1 found)
0x84b1b: add byte [rax], al ; add byte [rax-0x75], cl ; retn 0xC148 ; (2 found)
0x44d16: add byte [rax], al ; add byte [rax-0x7D], cl ; ret ; (1 found)
0x114ab: add byte [rax], al ; add byte [rax-0x7D], cl ; retn 0x441C ; (1 found)
0x4c9b: add byte [rax], al ; add byte [rax], al ; add bh, bh ; ret ; (1 found)
0x176eb: add byte [rax], al ; add byte [rax], al ; add byte [rax], al ; ret ; (1 found)
0x296f3: add byte [rax], al ; add byte [rax], al ; add rsp, 0x28 ; ret ; (1 found)
0x83f25: add byte [rax], al ; add byte [rax], al ; cmovs esi,  [rbx] ; retn 0x2348 ; (1 found)
0x178ec: add byte [rax], al ; add byte [rax], al ; jmp rax ; (1 found)
0x3e66f: add byte [rax], al ; add byte [rax], al ; lock dec  [rax+0x23] ; retn 0xC148 ; (1 found)
0x176ed: add byte [rax], al ; add byte [rax], al ; ret ; (1 found)
0x158e7: add byte [rax], al ; add byte [rax], al ; xor eax, eax ; ret ; (1 found)
0x8199c: add byte [rax], al ; add byte [rax], cl ; add byte [rax+0x0B], cl ; retn 0x8B48 ; (1 found)
0x9c73: add byte [rax], al ; add byte [rbp+0x450FFE50], cl ; retn 0xB70F ; (1 found)
0x7a5c: add byte [rax], al ; add byte [rbp-0x13], dh ; mov rax, rdx ; ret ; (1 found)
0x10d39: add byte [rax], al ; add byte [rbp-0x1E], dh ; ret ; (1 found)
0x7fdf9: add byte [rax], al ; add byte [rbp-0x3F66F040], al ; add rsp, 0x28 ; ret ; (1 found)
0x85453: add byte [rax], al ; add byte [rbx+0x0B410847], cl ; retn 0x8942 ; (1 found)
0x44da3: add byte [rax], al ; add byte [rbx+0x48C18BC8], cl ; add esp, 0x48 ; ret ; (1 found)
0x75d31: add byte [rax], al ; add byte [rbx+0x5D], bl ; ret ; (1 found)
0x1d22b: add byte [rax], al ; add byte [rbx+rbx*8+0x0FCF8B48], al ; xchg eax, esp ; retn 0x91E8 ; (1 found)
0x19862: add byte [rax], al ; add byte [rbx-0x74B32FB3], cl ; ret ; (1 found)
0x80e1b: add byte [rax], al ; add byte [rbx-0x7DF0E701], al ; ret ; (1 found)
0x224f3: add byte [rax], al ; add byte [rbx], bh ; retn 0x058B ; (1 found)
0x8d59c: add byte [rax], al ; add byte [rbx], bh ; retn 0x7175 ; (1 found)
0x783fa: add byte [rax], al ; add byte [rbx], bh ; retn 0x870F ; (1 found)
0xbd28: add byte [rax], al ; add byte [rbx], bh ; sal byte [rbp+0x01], 1 ; ret ; (1 found)
0x46a08: add byte [rax], al ; add byte [rcx+0x0F], al ; rol byte [rcx+0x0F], 1 ; retn 0xCA2B ; (1 found)
0x7756e: add byte [rax], al ; add byte [rcx+0x0F], cl ; retn 0x8548 ; (1 found)
0x3f889: add byte [rax], al ; add byte [rcx+0x23], al ; sar edi, cl ; retn 0x3345 ; (1 found)
0x473b5: add byte [rax], al ; add byte [rcx+0x33], al ; adc byte [r11], spl ; retn 0xE2D3 ; (3 found)
0x2cc7: add byte [rax], al ; add byte [rcx-0x0A], al ; ret ; (3 found)
0x68f2: add byte [rax], al ; add byte [rcx-0x0A], al ; retn 0x0F02 ; (1 found)
0x23654: add byte [rax], al ; add byte [rcx-0x0A], al ; retn 0x7501 ; (1 found)
0x20b07: add byte [rax], al ; add byte [rcx-0x4E], al ; add ecx, ebp ; ret ; (1 found)
0x7f0db: add byte [rax], al ; add byte [rcx-0x74BB27AB], cl ; ret ; (1 found)
0x688a: add byte [rax], al ; add byte [rcx-0x75], al ; ret ; (1 found)
0x16fd: add byte [rax], al ; add byte [rcx-0x75], cl ; ret ; (3 found)
0x7e995: add byte [rax], al ; add byte [rcx-0x75], cl ; retn 0x8B48 ; (1 found)
0x411ad: add byte [rax], al ; add byte [rdi+0x5B], bl ; ret ; (1 found)
0x1cf9: add byte [rax], al ; add byte [rdi+0x5E], bl ; pop rbp ; ret ; (2 found)
0x2b476: add byte [rax], al ; add byte [rdi+0x730DFFF0], bh ; retn 0x0003 ; (1 found)
0x3f484: add byte [rax], al ; add byte [rdi+rcx+0x44], cl ; retn 0x8B49 ; (1 found)
0x2ec8c: add byte [rax], al ; add byte [rdi+rcx-0x49], al ; ret ; (2 found)
0x7b10: add byte [rax], al ; add byte [rdi+rcx-0x4A], al ; retn 0x2B41 ; (1 found)
0x22503: add byte [rax], al ; add byte [rdi], cl ; retn 0x05EB ; (1 found)
0x557d: add byte [rax], al ; add byte [rdi], cl ; test byte [rbx+rdx*2-0x74B7FFFF], dl ; ret ; (1 found)
0x7965a: add byte [rax], al ; add byte [rdx+0x43E80D53], cl ; ret ; (1 found)
0x79637: add byte [rax], al ; add byte [rdx+0x66E80753], cl ; ret ; (1 found)
0x79620: add byte [rax], al ; add byte [rdx+0x7DE80453], cl ; ret ; (1 found)
0x166f0: add byte [rax], al ; add byte [rdx], bh ; retn 0x1776 ; (1 found)
0x429e2: add byte [rax], al ; add byte [rsi+0x3B], ah ; retn 0x3375 ; (1 found)
0x50b2: add byte [rax], al ; add byte [rsp+rsi*2+0x00], cl ; add eax, 0x28C48348 ; ret ; (1 found)
0x1c01d: add byte [rax], al ; add cl, ch ; mov al, byte [0x0D3B404D8BFFFEC3] ; retn 0x04BC ; (1 found)
0x1c078: add byte [rax], al ; add cl, ch ; ret ; (1 found)
0x2a8a4: add byte [rax], al ; add cl, ch ; retn 0x0000 ; (1 found)
0x21deb: add byte [rax], al ; add cl, ch ; retn 0xFF4D ; (1 found)
0x80e3a: add byte [rax], al ; add cl, ch ; xchg eax, ebx ; retn 0xFFFF ; (1 found)
0x39f8a: add byte [rax], al ; add eax, 0xC0000002 ; ret ; (1 found)
0x156d6: add byte [rax], al ; add rax, qword [0x0000000000067DD0] ; add rsp, 0x28 ; ret ; (1 found)
0x97e2: add byte [rax], al ; add rsp, 0x0000000000000080 ; pop rbx ; ret ; (1 found)
0x7a894: add byte [rax], al ; add rsp, 0x0000000000000080 ; pop rdi ; ret ; (4 found)
0xaee1: add byte [rax], al ; add rsp, 0x0000000000000088 ; ret ; (1 found)
0x3306e: add byte [rax], al ; add rsp, 0x0000000000000090 ; pop rdi ; ret ; (1 found)
0x5d65: add byte [rax], al ; add rsp, 0x00000000000000A0 ; pop rbp ; ret ; (1 found)
0x75efe: add byte [rax], al ; add rsp, 0x00000000000000B0 ; pop rbp ; ret ; (2 found)
0x8affa: add byte [rax], al ; add rsp, 0x00000000000000C0 ; pop rbp ; ret ; (2 found)
0x10ec6: add byte [rax], al ; add rsp, 0x00000000000000D0 ; pop rbp ; ret ; (1 found)
0xe116: add byte [rax], al ; add rsp, 0x00000000000000E0 ; pop rbp ; ret ; (3 found)
0x36686: add byte [rax], al ; add rsp, 0x00000000000000E0 ; pop rdi ; ret ; (1 found)
0x3072f: add byte [rax], al ; add rsp, 0x0000000000000110 ; pop rdi ; ret ; (1 found)
0x43e74: add byte [rax], al ; add rsp, 0x0000000000000140 ; pop rdi ; ret ; (1 found)
0x158b6: add byte [rax], al ; add rsp, 0x0000000000000150 ; pop rbp ; ret ; (1 found)
0x35b20: add byte [rax], al ; add rsp, 0x0000000000003030 ; pop rbp ; ret ; (1 found)
0x7d59e: add byte [rax], al ; add rsp, 0x20 ; pop rbx ; ret ; (41 found)
0x80dc4: add byte [rax], al ; add rsp, 0x20 ; pop rdi ; ret ; (3 found)
0x782c7: add byte [rax], al ; add rsp, 0x28 ; ret ; (69 found)
0x8a3d2: add byte [rax], al ; add rsp, 0x30 ; pop rbp ; ret ; (1 found)
0x7fdbc: add byte [rax], al ; add rsp, 0x30 ; pop rbx ; ret ; (13 found)
0x755ab: add byte [rax], al ; add rsp, 0x38 ; ret ; (23 found)
0x9302: add byte [rax], al ; add rsp, 0x40 ; pop rbx ; ret ; (7 found)
0x75180: add byte [rax], al ; add rsp, 0x48 ; ret ; (4 found)
0x3bae2: add byte [rax], al ; add rsp, 0x58 ; ret ; (2 found)
0x88e93: add byte [rax], al ; add rsp, 0x60 ; pop rbp ; ret ; (1 found)
0x8568: add byte [rax], al ; add rsp, 0x60 ; pop rbx ; ret ; (1 found)
0x2b8fb: add byte [rax], al ; add rsp, 0x60 ; pop rdi ; ret ; (1 found)
0x3ba8c: add byte [rax], al ; add rsp, 0x68 ; ret ; (2 found)
0x76c21: add byte [rax], al ; add rsp, 0x70 ; pop rdi ; ret ; (4 found)
0x3c099: add byte [rax], al ; cmove rax, rcx ; ret ; (1 found)
0x83f27: add byte [rax], al ; cmovs esi,  [rbx] ; retn 0x2348 ; (1 found)
0xbd36: add byte [rax], al ; cmp edx, ecx ; cmove eax, ecx ; ret ; (2 found)
0x30bf4: add byte [rax], al ; cmp rax, rcx ; cmovb rax, rcx ; ret ; (1 found)
0x181ac: add byte [rax], al ; imul eax,  [rcx+0x50] ; add rax, qword [rcx+0x48] ; ret ; (1 found)
0x4b3b: add byte [rax], al ; in al, dx ; ret ; (1 found)
0x176be: add byte [rax], al ; inc  [rdi+0x04] ; pop rdi ; ret ; (1 found)
0x2eff5: add byte [rax], al ; int3 ; add rsp, 0x28 ; ret ; (1 found)
0x29e53: add byte [rax], al ; int3 ; add rsp, 0x68 ; ret ; (1 found)
0x178ee: add byte [rax], al ; jmp rax ; (1 found)
0x133a4: add byte [rax], al ; lea rax, qword [0x0000000000064D90] ; ret ; (1 found)
0x3bb76: add byte [rax], al ; lock dec  [rax+0x23] ; ret ; (1 found)
0x3e671: add byte [rax], al ; lock dec  [rax+0x23] ; retn 0xC148 ; (1 found)
0x7d445: add byte [rax], al ; lock or  [rsp+0x00], r8d ; xor eax, eax ; ret ; (1 found)
0x2feaf: add byte [rax], al ; mov  [r8+0x00000118], r9d ; ret ; (1 found)
0x36360: add byte [rax], al ; mov  [r8+0x08], ecx ; ret ; (1 found)
0x7a13d: add byte [rax], al ; mov  [r8], 0x00000010 ; ret ; (1 found)
0x313d9: add byte [rax], al ; mov  [rcx+0x00000100], r8d ; mov qword [rcx+0x00000108], r9 ; ret ; (1 found)
0x2ea71: add byte [rax], al ; mov  [rcx+0x00000118], r8d ; mov qword [rcx+0x00000120], r9 ; ret ; (1 found)
0x9e26: add byte [rax], al ; mov  [rcx], eax ; mov  [rcx+0x04], r8d ; ret ; (1 found)
0x235d8: add byte [rax], al ; mov  [rdx+0x14], r8d ; xor eax, eax ; ret ; (1 found)
0x78199: add byte [rax], al ; mov  [rdx], ecx ; add rsp, 0x28 ; ret ; (1 found)
0x2eabe: add byte [rax], al ; mov al, 0x01 ; add rsp, 0x28 ; ret ; (1 found)
0x16df7: add byte [rax], al ; mov al, 0x01 ; mov qword [r8], rcx ; ret ; (1 found)
0x163e1: add byte [rax], al ; mov al, 0x01 ; ret ; (2 found)
0x46c7: add byte [rax], al ; mov al, byte [rax+0x000000D6] ; ret ; (1 found)
0x12941: add byte [rax], al ; mov al, byte [rax] ; add rsp, 0x28 ; ret ; (1 found)
0x4b5e: add byte [rax], al ; mov al, r8L ; out dx, al ; ret ; (1 found)
0x155e3: add byte [rax], al ; mov al, r8L ; ret ; (1 found)
0x3062d: add byte [rax], al ; mov byte [0x0000000000065C80], 0x00 ; add rsp, 0x28 ; ret ; (1 found)
0x759e4: add byte [rax], al ; mov byte [0x0000000000067D78], 0x01 ; add rsp, 0x48 ; ret ; (1 found)
0x8ba9: add byte [rax], al ; mov byte [r9], al ; mov al, 0x01 ; ret ; (1 found)
0x46e7: add byte [rax], al ; mov byte [rax+0x000000D6], cl ; ret ; (1 found)
0x12a5b: add byte [rax], al ; mov eax,  [rax] ; add rsp, 0x28 ; ret ; (1 found)
0x11595: add byte [rax], al ; mov eax, 0x00000001 ; add rsp, 0x28 ; ret ; (4 found)
0x20832: add byte [rax], al ; mov eax, 0xC000000D ; ret ; (1 found)
0x20822: add byte [rax], al ; mov eax, 0xC0000225 ; ret ; (1 found)
0x7a281: add byte [rax], al ; mov eax, edx ; add rsp, 0x38 ; ret ; (2 found)
0x114c3: add byte [rax], al ; mov eax, r8d ; add rsp, 0x28 ; ret ; (2 found)
0x75755: add byte [rax], al ; mov eax, r9d ; add rsp, 0x28 ; ret ; (1 found)
0x2b477: add byte [rax], al ; mov edi, 0x730DFFF0 ; retn 0x0003 ; (1 found)
0x313e0: add byte [rax], al ; mov qword [rcx+0x00000108], r9 ; ret ; (1 found)
0x30c26: add byte [rax], al ; mov qword [rcx+0x00000108], rax ; ret ; (1 found)
0x2ea78: add byte [rax], al ; mov qword [rcx+0x00000120], r9 ; ret ; (1 found)
0x75135: add byte [rax], al ; mov qword [rcx], rax ; xor eax, eax ; ret ; (2 found)
0x1740e: add byte [rax], al ; mov rax, cr2 ; mov cr2, rax ; ret ; (1 found)
0x2aba: add byte [rax], al ; mov rax, qword [0x0000000000067C38] ; mov  [rax+0x00000300], edx ; ret ; (1 found)
0x13d3c: add byte [rax], al ; mov rax, qword [0x0000000000067CB0] ; add rsp, 0x48 ; ret ; (1 found)
0xba62: add byte [rax], al ; mov rax, qword [rsp+0x60] ; add rsp, 0x58 ; ret ; (1 found)
0x176de: add byte [rax], al ; mov rcx, qword [0x0000000000067C38] ; mov  [rcx+0x000000B0], 0x00000000 ; ret ; (1 found)
0x1743b: add byte [rax], al ; mov rdi, qword [rdi+0x78] ; jmp rcx ; (1 found)
0x16e73: add byte [rax], al ; mov word [rdx], r8w ; xor eax, eax ; ret ; (1 found)
0x126e6: add byte [rax], al ; movzx eax, al ; add rsp, 0x28 ; ret ; (1 found)
0x12a1f: add byte [rax], al ; movzx eax, word [rax] ; add rsp, 0x28 ; ret ; (1 found)
0x50b3: add byte [rax], al ; or al, 0x74 ; add eax, 0x28C48348 ; ret ; (1 found)
0x40ffd: add byte [rax], al ; out dx, eax ; mov eax, 0x00000004 ; ret ; (1 found)
0x7551a: add byte [rax], al ; pop rbp ; ret ; (16 found)
0x75d32: add byte [rax], al ; pop rbx ; pop rbp ; ret ; (1 found)
0x97e9: add byte [rax], al ; pop rbx ; ret ; (2 found)
0x411ae: add byte [rax], al ; pop rdi ; pop rbx ; ret ; (1 found)
0x7a89b: add byte [rax], al ; pop rdi ; ret ; (8 found)
0x7f14a: add byte [rax], al ; push qword [rax+rbx-0x0A] ; ret ; (1 found)
0x34074: add byte [rax], al ; push rax ; add byte [rax-0x75], cl ; retn 0x45EB ; (1 found)
0x33d71: add byte [rax], al ; push rax ; add byte [rax-0x75], cl ; retn 0x4EEB ; (1 found)
0x34dea: add byte [rax], al ; push rax ; add byte [rax-0x75], cl ; retn 0xC148 ; (1 found)
0x751b3: add byte [rax], al ; ret ; (43 found)
0x20b14: add byte [rax], al ; rol bh, 0x05 ; ret ; (1 found)
0x90074: add byte [rax], al ; rol byte [rbp-0x77], 0x08 ; ret ; (1 found)
0x2ae49: add byte [rax], al ; ror byte [rax-0x75], 0x8D ; mov al, byte [0x55E8CC3348000001] ; retn 0xFFFE ; (1 found)
0x7b648: add byte [rax], al ; ror byte [rax-0x7D], 0xC4 ; pop rax ; ret ; (1 found)
0x357ac: add byte [rax], al ; ror byte [rax-0x7D], 0xC4 ; pop rbx ; ret ; (1 found)
0x7a680: add byte [rax], al ; ror byte [rbx-0x3B7CB73F], 0x28 ; ret ; (1 found)
0x9cb2: add byte [rax], al ; setne al ; ret ; (3 found)
0x80eba: add byte [rax], al ; shr cl, 0x13 ; retn 0xFFFF ; (1 found)
0x80e83: add byte [rax], al ; shr cl, 0x19 ; retn 0xFFFF ; (1 found)
0x1bf2c: add byte [rax], al ; shr cl, 0x5B ; retn 0xFFFE ; (1 found)
0x8c9e4: add byte [rax], al ; shr cl, 0x92 ; retn 0xFFFF ; (1 found)
0x1c082: add byte [rax], al ; shr cl, 0xC0 ; ret ; (1 found)
0x108cb: add byte [rax], al ; shr eax, 0x08 ; and al, 0x01 ; ret ; (1 found)
0x31ffb: add byte [rax], al ; wrmsr ; ret ; (1 found)
0x2eb3a: add byte [rax], al ; xor al, al ; add rsp, 0x28 ; ret ; (2 found)
0x755ce: add byte [rax], al ; xor al, al ; ret ; (1 found)
0x7a56c: add byte [rax], al ; xor eax, eax ; add rsp, 0x28 ; ret ; (5 found)
0x8991b: add byte [rax], al ; xor eax, eax ; add rsp, 0x38 ; ret ; (1 found)
0x1487e: add byte [rax], al ; xor eax, eax ; mov rbx, qword [rsp+0x08] ; ret ; (1 found)
0x7d3d9: add byte [rax], al ; xor eax, eax ; ret ; (7 found)
0x1d97a: add byte [rax], al ; xor edx, edx ; wrmsr ; ret ; (1 found)
0x8199e: add byte [rax], cl ; add byte [rax+0x0B], cl ; retn 0x8B48 ; (1 found)
0x1c4c1: add byte [rax], dl ; add byte [rax+0x0B], cl ; retn 0x2348 ; (1 found)
0x20d31: add byte [rax], dl ; add byte [rax], al ; ret ; (1 found)
0x349d1: add byte [rax], dl ; add byte [rcx-0x007F], cl ; retn 0x0000 ; (1 found)
0x8c2c0: add byte [rax], r8L ; add rsp, 0x20 ; pop rbx ; ret ; (6 found)
0x7a5f8: add byte [rax], r8L ; add rsp, 0x28 ; ret ; (14 found)
0x781ed: add byte [rax], r8L ; add rsp, 0x38 ; ret ; (7 found)
0x2fd47: add byte [rax], r8L ; add rsp, 0x48 ; ret ; (1 found)
0x2eff4: add byte [rax], r8L ; int3 ; add rsp, 0x28 ; ret ; (1 found)
0x29e52: add byte [rax], r8L ; int3 ; add rsp, 0x68 ; ret ; (1 found)
0x2eabd: add byte [rax], r8L ; mov al, 0x01 ; add rsp, 0x28 ; ret ; (1 found)
0x759e3: add byte [rax], r8L ; mov byte [0x0000000000067D78], 0x01 ; add rsp, 0x48 ; ret ; (1 found)
0x13d3b: add byte [rax], r8L ; mov rax, qword [0x0000000000067CB0] ; add rsp, 0x48 ; ret ; (1 found)
0x2eb39: add byte [rax], r8L ; xor al, al ; add rsp, 0x28 ; ret ; (2 found)
0x7a56b: add byte [rax], r8L ; xor eax, eax ; add rsp, 0x28 ; ret ; (1 found)
0x8991a: add byte [rax], r8L ; xor eax, eax ; add rsp, 0x38 ; ret ; (1 found)
0x337bf: add byte [rbp+0x03], al ; rol  [rcx-0x75], 1 ; retn 0x0348 ; (1 found)
0x2fc9f: add byte [rbp+0x03], dh ; mov al, 0x01 ; ret ; (1 found)
0x459a5: add byte [rbp+0x03], dh ; xor eax, eax ; ret ; (1 found)
0x5f4b: add byte [rbp+0x05], dh ; add rsp, 0x28 ; ret ; (1 found)
0x10b0a: add byte [rbp+0x07], dh ; xor eax, eax ; add rsp, 0x28 ; ret ; (1 found)
0x8c35c: add byte [rbp+0x07], dh ; xor eax, eax ; add rsp, 0x38 ; ret ; (1 found)
0x16418: add byte [rbp+0x0A], dh ; mov byte [0x0000000000067F30], 0x00 ; xor eax, eax ; ret ; (1 found)
0x30c1e: add byte [rbp+0x0E], dh ; mov qword [rcx+0x000000FC], rax ; mov qword [rcx+0x00000108], rax ; ret ; (1 found)
0x1540e: add byte [rbp+0x12840FC0], al ; retn 0x0000 ; (1 found)
0x152dd: add byte [rbp+0x14840FC9], al ; ret ; (1 found)
0x8a50f: add byte [rbp+0x18], dh ; add rsp, 0x20 ; pop rbx ; ret ; (1 found)
0x553a: add byte [rbp+0x2B], al ; ror byte [rbp+rcx*4+0x34], 1 ; retn 0x8B41 ; (1 found)
0x1bf4f: add byte [rbp+0x37880FC0], al ; retn 0xFFFE ; (1 found)
0x89516: add byte [rbp+0x3B], cl ; sal  [rbp-0x2A], 0x48 ; mov ebx,  [rsp+0x08] ; ret ; (1 found)
0x9c75: add byte [rbp+0x450FFE50], cl ; retn 0xB70F ; (1 found)
0x1bf92: add byte [rbp+0x6E880FC0], al ; ret ; (1 found)
0x7a5e: add byte [rbp-0x13], dh ; mov rax, rdx ; ret ; (1 found)
0x1985c: add byte [rbp-0x1477F040], al ; add byte [rax], al ; add byte [rbx-0x74B32FB3], cl ; ret ; (1 found)
0x1c003: add byte [rbp-0x16688640], al ; cld ; retn 0xFFFE ; (1 found)
0x10d3b: add byte [rbp-0x1E], dh ; ret ; (1 found)
0x7fdfb: add byte [rbp-0x3F66F040], al ; add rsp, 0x28 ; ret ; (1 found)
0x32e00: add byte [rbp-0x48F0FEBE], cl ; ror byte [rbp+0x440F1204], 1 ; retn 0xCCC3 ; (1 found)
0x7e071: add byte [rbp-0x6977F040], al ; xor al, 0x00 ; add bh, bh ; ret ; (1 found)
0x1029b: add byte [rbp-0x75], al ; ret ; (2 found)
0x7d06d: add byte [rbp-0x75], al ; retn 0x8341 ; (2 found)
0x2b1a4: add byte [rbp-0x75], al ; retn 0x8B48 ; (1 found)
0xc0a1: add byte [rbp-0x75], cl ; retn 0x8B48 ; (1 found)
0x2b01d: add byte [rbp-0x75], cl ; retn 0x8B49 ; (2 found)
0x120bf: add byte [rbp-0x75], cl ; retn 0x8D48 ; (1 found)
0x3a4d8: add byte [rbp-0x75], cl ; ror byte [rbx-0x7EB37405], 1 ; sbb al, 0x8B ; ret ; (1 found)
0x1c385: add byte [rbp-0x7B], al ; test byte [rdi], 0x88 ; retn 0xFFFE ; (1 found)
0x1ac93: add byte [rbp-0x7B], cl ; ror byte [rdi], 0x84 ; retn 0x0000 ; (1 found)
0x50ae: add byte [rbx+0x0000E4B8], al ; add byte [rsp+rsi*2+0x00], cl ; add eax, 0x28C48348 ; ret ; (1 found)
0x9c98: add byte [rbx+0x00030088], cl ; add byte [rdi], cl ; mov edx, 0xED720CE1 ; ret ; (1 found)
0x301cd: add byte [rbx+0x039F7325], al ; add byte [rax], al ; add rsp, 0x28 ; ret ; (1 found)
0x15e29: add byte [rbx+0x04FBFC15], cl ; add byte [rdi], cl ; scasd ; retn 0xC88B ; (1 found)
0x15303: add byte [rbx+0x052C1D25], al ; add ah, bh ; ret ; (1 found)
0x7a11c: add byte [rbx+0x067310F9], al ; mov eax, 0xC0000023 ; ret ; (1 found)
0x80a98: add byte [rbx+0x077411FA], al ; xor eax, eax ; add rsp, 0x28 ; ret ; (1 found)
0x152f7: add byte [rbx+0x077501F9], al ; mov  [0x0000000000067F28], r8d ; and  [0x0000000000067F28], 0xFFFFFFFC ; ret ; (1 found)
0x13394: add byte [rbx+0x08], dh ; add rax, qword [0x0000000000067F38] ; ret ; (1 found)
0x85455: add byte [rbx+0x0B410847], cl ; retn 0x8942 ; (1 found)
0x343f0: add byte [rbx+0x0F4920C0], al ; stosd ; retn 0xFF41 ; (1 found)
0x33617: add byte [rbx+0x0FCA3BC1], cl ; retn 0x4389 ; (2 found)
0x2ea1c: add byte [rbx+0x15FF48D3], cl ; retn 0x0429 ; (1 found)
0x49cf3: add byte [rbx+0x15FF48F8], cl ; ret ; (1 found)
0x3aff5: add byte [rbx+0x234C07E0], al ; retn 0xC148 ; (1 found)
0x3aa72: add byte [rbx+0x448B44D7], cl ; xchg eax, esi ; sbb al, 0x8B ; ret ; (1 found)
0x15416: add byte [rbx+0x48482444], cl ; add esp, 0x30 ; pop rbx ; ret ; (1 found)
0x44da5: add byte [rbx+0x48C18BC8], cl ; add esp, 0x48 ; ret ; (1 found)
0x5e3b: add byte [rbx+0x48C38BD8], cl ; add esp, 0x20 ; pop rbx ; ret ; (2 found)
0x601c: add byte [rbx+0x5D], bl ; pop rcx ; ret ; (1 found)
0x75d33: add byte [rbx+0x5D], bl ; ret ; (1 found)
0x1d22d: add byte [rbx+rbx*8+0x0FCF8B48], al ; xchg eax, esp ; retn 0x91E8 ; (1 found)
0x1295b: add byte [rbx+rcx-0x75], dh ; retn 0x8348 ; (1 found)
0x177bf: add byte [rbx-0x3774BAFE], cl ; mov  [rcx+r9], eax ; mov eax, 0x00000004 ; ret ; (1 found)
0x16455: add byte [rbx-0x37D40037], al ; mov eax, ecx ; add rsp, 0x28 ; ret ; (1 found)
0x2275f: add byte [rbx-0x3B7CB73D], cl ; pop rbx ; ret ; (1 found)
0x4463: add byte [rbx-0x3FFCB73F], cl ; and  [rdx+rax*8+0x04], 0x00000000 ; mov  [rdx+rax*8], 0x00000002 ; ret ; (2 found)
0x4866: add byte [rbx-0x3F], cl ; mov  [r8+rax], edx ; ret ; (1 found)
0x2cbaa: add byte [rbx-0x44FA1428], cl ; or eax, 0x8BC00000 ; ret ; (1 found)
0x1dc10: add byte [rbx-0x740010B3], al ; iretq ; (1 found)
0x19864: add byte [rbx-0x74B32FB3], cl ; ret ; (1 found)
0x8fbe0: add byte [rbx-0x74BEDBF4], cl ; ret ; (1 found)
0x11f3a: add byte [rbx-0x74BEF01E], al ; ret ; (1 found)
0xe39a: add byte [rbx-0x7BF0FE18], al ; ret ; (1 found)
0x80e1d: add byte [rbx-0x7DF0E701], al ; ret ; (1 found)
0xf720: add byte [rbx], ah ; retn 0x2C8D ; (1 found)
0x2ac5: add byte [rbx], al ; add byte [rax], al ; ret ; (1 found)
0x13732: add byte [rbx], bh ; enter 0x077F, 0x32 ; ror byte [rax-0x7D], 0xC4 ; ret ; (1 found)
0x1cc22: add byte [rbx], bh ; ret ; (2 found)
0x224f5: add byte [rbx], bh ; retn 0x058B ; (1 found)
0x8d59e: add byte [rbx], bh ; retn 0x7175 ; (1 found)
0xea01: add byte [rbx], bh ; retn 0x840F ; (1 found)
0x783fc: add byte [rbx], bh ; retn 0x870F ; (1 found)
0xbd2a: add byte [rbx], bh ; sal byte [rbp+0x01], 1 ; ret ; (1 found)
0xb32a: add byte [rbx], ch ; retn 0x8B41 ; (1 found)
0x43529: add byte [rbx], dh ; fisttp  [rax-0x75] ; ret ; (1 found)
0x5d9b: add byte [rbx], dh ; fisttp  [rbx+rcx*4+0x1D] ; ret ; (1 found)
0x2f150: add byte [rbx], dh ; jmp qword [rsi-0x77] ; (1 found)
0x31dfb: add byte [rbx], dh ; rol byte [rbx-0x6BF0FD02], cl ; retn 0x8D4C ; (1 found)
0x8ea4: add byte [rbx], dh ; ror byte [rax-0x75], 0x5C ; and al, 0x08 ; ret ; (2 found)
0x75850: add byte [rbx], dh ; ror byte [rax-0x7D], 0xC4 ; pop rbx ; ret ; (1 found)
0x345ab: add byte [rbx], dh ; ror byte [rdi], cl ; xor bh, bh ; ret ; (1 found)
0x17704: add byte [rbx], dh ; sal byte [rbx], 0xD2 ; wrmsr ; ret ; (1 found)
0xdbb8: add byte [rcx+0x0F20247C], cl ; fisttp qword [r13-0x74BBFCB2] ; ret ; (1 found)
0x7f94d: add byte [rcx+0x0F], al ; mov  [0x8B00000120820FCC], eax ; ret ; (1 found)
0x1c52e: add byte [rcx+0x0F], al ; retn 0x8B44 ; (1 found)
0x46a0a: add byte [rcx+0x0F], al ; rol byte [rcx+0x0F], 1 ; retn 0xCA2B ; (1 found)
0x77570: add byte [rcx+0x0F], cl ; retn 0x8548 ; (1 found)
0x3f88b: add byte [rcx+0x23], al ; sar edi, cl ; retn 0x3345 ; (1 found)
0x3fd56: add byte [rcx+0x23], cl ; retn 0x8348 ; (1 found)
0x473b7: add byte [rcx+0x33], al ; adc byte [r11], spl ; retn 0xE2D3 ; (3 found)
0x3b53d: add byte [rcx+0x33], cl ; retn 0x8948 ; (1 found)
0x8e9f3: add byte [rcx+0x3B], al ; ret ; (1 found)
0x77679: add byte [rcx+rcx*4+0x59], cl ; or byte [rcx+rcx*4+0x08], al ; mov eax, r11d ; ret ; (1 found)
0x2ea79: add byte [rcx+rcx*4-0x77], cl ; and byte [rcx], al ; add byte [rax], al ; ret ; (1 found)
0x313e1: add byte [rcx+rcx*4-0x77], cl ; or byte [rcx], al ; add byte [rax], al ; ret ; (1 found)
0x91ad: add byte [rcx+rcx*8+0x48FB0174], al ; add esp, 0x20 ; pop rbx ; ret ; (1 found)
0x76c67: add byte [rcx-0x007F], cl ; ret ; (2 found)
0x349d3: add byte [rcx-0x007F], cl ; retn 0x0000 ; (1 found)
0x224fd: add byte [rcx-0x0080], al ; mov eax, 0x000001AD ; add byte [rdi], cl ; retn 0x05EB ; (1 found)
0x16272: add byte [rcx-0x01], al ; ret ; (1 found)
0x8bc6e: add byte [rcx-0x01], al ; retn 0x4489 ; (1 found)
0x2cc9: add byte [rcx-0x0A], al ; ret ; (4 found)
0x68f4: add byte [rcx-0x0A], al ; retn 0x0F02 ; (1 found)
0x23656: add byte [rcx-0x0A], al ; retn 0x7501 ; (1 found)
0x20b09: add byte [rcx-0x4E], al ; add ecx, ebp ; ret ; (1 found)
0x7f0dd: add byte [rcx-0x74BB27AB], cl ; ret ; (1 found)
0xb620: add byte [rcx-0x75], al ; fld  [rcx+0x2B] ; ret ; (1 found)
0x688c: add byte [rcx-0x75], al ; ret ; (2 found)
0x35afd: add byte [rcx-0x75], al ; retn 0x08EB ; (1 found)
0x11c61: add byte [rcx-0x75], al ; retn 0xC085 ; (1 found)
0x372a: add byte [rcx-0x75], al ; retn 0xE883 ; (1 found)
0x11b33: add byte [rcx-0x75], al ; rol byte [rbx-0x74BEF01E], cl ; retn 0xC148 ; (1 found)
0x43e1a: add byte [rcx-0x75], cl ; fmul  [rax-0x75] ; retn 0x8B48 ; (1 found)
0x16ff: add byte [rcx-0x75], cl ; ret ; (4 found)
0x7e997: add byte [rcx-0x75], cl ; retn 0x8B48 ; (1 found)
0x586b: add byte [rcx-0x75], cl ; ror byte [rcx-0x75], cl ; retn 0xC148 ; (1 found)
0xa901: add byte [rcx-0x76], al ; ret ; (1 found)
0xc828: add byte [rcx-0x76], al ; retn 0x8B48 ; (1 found)
0xbb00: add byte [rcx-0x76], al ; retn 0x8B4C ; (1 found)
0x313de: add byte [rcx], al ; add byte [rax], al ; mov qword [rcx+0x00000108], r9 ; ret ; (1 found)
0x7d3d7: add byte [rcx], al ; add byte [rax], al ; xor eax, eax ; ret ; (1 found)
0x1ac91: add byte [rcx], al ; add byte [rbp-0x7B], cl ; ror byte [rdi], 0x84 ; retn 0x0000 ; (1 found)
0x3572f: add byte [rcx], al ; add rsp, 0x20 ; pop rbx ; ret ; (1 found)
0x355d9: add byte [rcx], al ; add rsp, 0x30 ; pop rbx ; ret ; (1 found)
0x14fbd: add byte [rcx], al ; mov  [rcx+0x74], eax ; xor eax, eax ; ret ; (1 found)
0x4605: add byte [rcx], al ; ret ; (1 found)
0x469b5: add byte [rcx], dh ; adc byte [r13-0x75], al ; fiadd  [rcx-0x75] ; retn 0x20B9 ; (1 found)
0x2c768: add byte [rcx], dl ; adc  [rax], eax ; add byte [rax+0x0B], cl ; retn 0x8549 ; (1 found)
0x8ef5: add byte [rdi+0x01], dh ; ret ; (1 found)
0x144a5: add byte [rdi+0x06], dh ; add rsp, 0x20 ; pop rbx ; ret ; (1 found)
0x13375: add byte [rdi+0x27], dh ; lea rcx, qword [0x0000000000064DC0] ; add rax, rcx ; ret ; (1 found)
0x25b3: add byte [rdi+0x5B], bl ; pop rcx ; ret ; (1 found)
0x411af: add byte [rdi+0x5B], bl ; ret ; (1 found)
0x1cfb: add byte [rdi+0x5E], bl ; pop rbp ; ret ; (3 found)
0x2b478: add byte [rdi+0x730DFFF0], bh ; retn 0x0003 ; (1 found)
0x8f787: add byte [rdi+rax-0x01], dh ; retn 0x3B41 ; (1 found)
0x7b04f: add byte [rdi+rcx+0x44], al ; ret ; (1 found)
0x3f486: add byte [rdi+rcx+0x44], cl ; retn 0x8B49 ; (1 found)
0x2ec8f: add byte [rdi+rcx-0x49], al ; ret ; (1 found)
0x77402: add byte [rdi+rcx-0x49], al ; retn 0x3B41 ; (1 found)
0x45564: add byte [rdi+rcx-0x49], al ; shl byte [rsi+0x44], 0x23 ; retn 0x00BF ; (1 found)
0x45a14: add byte [rdi+rcx-0x4A], al ; add al, 0x08 ; mov eax, r8d ; ret ; (1 found)
0x7b12: add byte [rdi+rcx-0x4A], al ; retn 0x2B41 ; (1 found)
0x32c00: add byte [rdi+rcx-0x4A], al ; retn 0xB60F ; (1 found)
0x1740f: add byte [rdi], cl ; and al, dl ; mov cr2, rax ; ret ; (1 found)
0x2edbd: add byte [rdi], cl ; mov  [rax+r10+0x000911E1], edx ; ret ; (1 found)
0x12a20: add byte [rdi], cl ; mov bh, 0x00 ; add rsp, 0x28 ; ret ; (1 found)
0x487bf: add byte [rdi], cl ; mov dh, 0x47 ; and al, 0xFF ; ret ; (2 found)
0x126e7: add byte [rdi], cl ; mov dh, 0xC0 ; add rsp, 0x28 ; ret ; (1 found)
0x1c1c7: add byte [rdi], cl ; mov edx, 0x830F08E0 ; retn 0x0001 ; (1 found)
0x9c9e: add byte [rdi], cl ; mov edx, 0xED720CE1 ; ret ; (1 found)
0x22505: add byte [rdi], cl ; retn 0x05EB ; (1 found)
0x15e2f: add byte [rdi], cl ; scasd ; retn 0xC88B ; (1 found)
0x33ab8: add byte [rdi], cl ; scasd ; retn 0xF08B ; (1 found)
0x4f54: add byte [rdi], cl ; test  [rax+0x48000154], ebp ; add esp, 0x28 ; ret ; (1 found)
0x16707: add byte [rdi], cl ; test  [rsi+0x480000B5], ebp ; add esp, 0x28 ; ret ; (1 found)
0x1819: add byte [rdi], cl ; test  [rsi+0x48000169], eax ; mov eax,  [rcx+0x48] ; ret ; (1 found)
0x557f: add byte [rdi], cl ; test byte [rbx+rdx*2-0x74B7FFFF], dl ; ret ; (1 found)
0x2c7b8: add byte [rdi], cl ; xchg eax, ebp ; ret ; (1 found)
0x28d6c: add byte [rdi], cl ; xchg eax, esp ; retn 0xFF48 ; (1 found)
0x76f65: add byte [rdx+0x05], dh ; mov cl, 0x03 ; mov al, cl ; ret ; (1 found)
0x465e5: add byte [rdx+0x19], cl ; or eax, 0x10 ; mov  [rdx+0x10], eax ; ret ; (1 found)
0x7965c: add byte [rdx+0x43E80D53], cl ; ret ; (1 found)
0x79639: add byte [rdx+0x66E80753], cl ; ret ; (1 found)
0x4b34: add byte [rdx+0x71BAEEC1], cl ; add byte [rax], al ; add ah, ch ; ret ; (1 found)
0x79622: add byte [rdx+0x7DE80453], cl ; ret ; (1 found)
0x1777f: add byte [rdx-0x3774BAFE], cl ; mov byte [rcx+r9], al ; mov eax, 0x00000001 ; ret ; (1 found)
0x454ff: add byte [rdx], ah ; retn 0xC23A ; (1 found)
0x8c53b: add byte [rdx], al ; add byte [rax], al ; pop rbp ; ret ; (1 found)
0xfe64: add byte [rdx], bh ; ret ; (1 found)
0x166f2: add byte [rdx], bh ; retn 0x1776 ; (1 found)
0x13349: add byte [rsi+0x0B], dh ; mov eax, r8d ; add rax, qword [0x0000000000064DA8] ; ret ; (1 found)
0x42783: add byte [rsi+0x23], ah ; shl  [rsi+0x41], 0x3B ; ret ; (1 found)
0x7ac8f: add byte [rsi+0x3B], ah ; retn 0x1577 ; (1 found)
0x429e4: add byte [rsi+0x3B], ah ; retn 0x3375 ; (1 found)
0x42ee0: add byte [rsi+0x3B], ah ; sal  [rbp+0x55], 0xFFFFFF8A ; ret ; (1 found)
0x16e74: add byte [rsi+0x44], ah ; mov  [rdx], eax ; xor eax, eax ; ret ; (1 found)
0x17131: add byte [rsi+0x62], dh ; mov al, 0x01 ; ret ; (1 found)
0x50b4: add byte [rsp+rsi*2+0x00], cl ; add eax, 0x28C48348 ; ret ; (1 found)
0x8daa5: add ch, bl ; add al, 0xC6 ; add  [rcx-0x75], eax ; retn 0xE0C1 ; (3 found)
0x813aa: add ch, byte [rsi-0x08] ; call qword [rax-0x00380017] ; (1 found)
0x40f8b: add ch, ch ; mov  [r9], eax ; mov eax, 0x00000004 ; ret ; (1 found)
0x19e37: add ch, cl ; ret ; (1 found)
0x4a3bb: add cl, byte [rax+0x03] ; retn 0x8D48 ; (2 found)
0x42a49: add cl, byte [rax+0x23] ; ret ; (2 found)
0x44a6: add cl, byte [rax+0x3B] ; retn 0x1474 ; (1 found)
0x25f5d: add cl, byte [rax+0x3B] ; retn 0x1774 ; (1 found)
0x1c9e: add cl, byte [rax-0x75] ; retn 0xC148 ; (2 found)
0x83e90: add cl, byte [rax-0x7D] ; retn 0x4808 ; (1 found)
0x8aa54: add cl, byte [rcx+0x0F410C4A] ; mov dh, 0x40 ; cmovno edi,  [rbx] ; retn 0x0F41 ; (1 found)
0x8cbf8: add cl, byte [rcx+0x3B] ; ret ; (2 found)
0x8fe8e: add cl, byte [rcx+0x3B] ; retn 0x460F ; (1 found)
0x8f5a6: add cl, byte [rcx+0x3B] ; retn 0xD176 ; (1 found)
0x8eaf2: add cl, byte [rcx-0x01] ; retn 0x8349 ; (1 found)
0x369cf: add cl, byte [rdi] ; xchg eax, esp ; ret ; (1 found)
0x31e00: add cl, byte [rdi] ; xchg eax, esp ; retn 0x8D4C ; (1 found)
0x21bae: add cl, ch ; cmovnbe edi, edi ; jmp qword [rsi+0x3B] ; (1 found)
0x1c01f: add cl, ch ; mov al, byte [0x0D3B404D8BFFFEC3] ; retn 0x04BC ; (1 found)
0x1c07a: add cl, ch ; ret ; (1 found)
0x2a8a6: add cl, ch ; retn 0x0000 ; (1 found)
0x21ded: add cl, ch ; retn 0xFF4D ; (1 found)
0x80e3c: add cl, ch ; xchg eax, ebx ; retn 0xFFFF ; (1 found)
0x499ba: add dh, byte [rax+0x3B480001] ; ret ; (1 found)
0x7f6e3: add dh, byte [rbp+rbx-0x7D] ; stc ; add dh, byte [rcx+rdx-0x75] ; ret ; (1 found)
0x258fe: add dh, byte [rbx] ; ror byte [rax-0x7D], 0xC4 ; pop rbx ; ret ; (1 found)
0x7f6e8: add dh, byte [rcx+rdx-0x75] ; ret ; (1 found)
0x8e1da: add dh, byte [rcx-0x0B2117FF] ; stc ; call qword [rax-0x001FD517] ; (1 found)
0x8ffbf: add dh, byte [rdx] ; leave ; mov al, cl ; ret ; (1 found)
0x23588: add dh, byte [rsi+0x06] ; mov eax, 0xC00000BB ; ret ; (1 found)
0x1c5e6: add dh, byte [rsi+rax-0x48] ; add  [rax], eax ; add al, al ; ret ; (2 found)
0x42061: add dh, dh ; and al, 0x48 ; xor byte [rbx+rbx*8+0x48], 0x81 ; ret ; (1 found)
0x16976: add dh, dh ; fcomp  [rdx] ; sal byte [rbx], cl ; jmp qword [rdx] ; (1 found)
0x25f46: add dh, dh ; fmul  [rax+0x1B] ; rol byte [rbx-0x7EB7EF1E], cl ; retn 0x0098 ; (1 found)
0x32ae5: add dx, 0x000A ; out dx, al ; ret ; (1 found)
0x32aeb: add dx, 0x0014 ; out dx, al ; ret ; (1 found)
0x40fc4: add dx, r8w ; out dx, al ; mov eax, 0x00000001 ; ret ; (1 found)
0x41035: add dx, r8w ; out dx, ax ; mov eax, 0x00000002 ; ret ; (1 found)
0x13350: add eax,  [0x0000000000064DA8] ; ret ; (1 found)
0x156d9: add eax,  [0x0000000000067DD0] ; add rsp, 0x28 ; ret ; (1 found)
0x13398: add eax,  [0x0000000000067F38] ; ret ; (1 found)
0x3392e: add eax,  [eax] ; add rsp, 0x30 ; pop rbx ; ret ; (1 found)
0x16f89: add eax,  [rax] ; add byte [rax-0x3FCD3CFF], dh ; ret ; (1 found)
0x20d3d: add eax,  [rax] ; add byte [rax], al ; ret ; (1 found)
0x9c9c: add eax,  [rax] ; add byte [rdi], cl ; mov edx, 0xED720CE1 ; ret ; (1 found)
0x36bb6: add eax,  [rax] ; add rsp, 0x20 ; pop rbx ; ret ; (1 found)
0x2fb3c: add eax,  [rax] ; add rsp, 0x28 ; ret ; (9 found)
0x31526: add eax,  [rax] ; add rsp, 0x30 ; pop rbx ; ret ; (3 found)
0x313b3: add eax,  [rax] ; add rsp, 0x38 ; ret ; (3 found)
0x3847a: add eax,  [rax] ; add rsp, 0x48 ; ret ; (1 found)
0x384e2: add eax,  [rax] ; add rsp, 0x68 ; ret ; (1 found)
0x2c078: add eax,  [rax] ; mov eax, 0xC0000001 ; ret ; (1 found)
0x37d34: add eax,  [rax] ; nop  [rax+rax+0x00] ; add rsp, 0x38 ; ret ; (1 found)
0x2a6e9: add eax,  [rax] ; ret ; (5 found)
0x49937: add eax,  [rax] ; xor eax, eax ; add rsp, 0x28 ; ret ; (1 found)
0x37d76: add eax,  [rax] ; xor eax, eax ; add rsp, 0x38 ; ret ; (3 found)
0x8eb14: add eax,  [rbp+0x33] ; rol byte [rcx-0x75], 0xC0 ; ret ; (1 found)
0x43fb7: add eax,  [rcx+0x3B] ; retn 0xCF7C ; (1 found)
0x181b3: add eax,  [rcx+0x48] ; ret ; (1 found)
0x3341: add eax,  [rcx-0x0A] ; ret ; (1 found)
0x3260a: add eax,  [rcx] ; add rsp, 0x50 ; pop rbx ; ret ; (1 found)
0x357a9: add eax, 0x000001B8 ; ror byte [rax-0x7D], 0xC4 ; pop rbx ; ret ; (1 found)
0x2ae46: add eax, 0x000002B8 ; ror byte [rax-0x75], 0x8D ; mov al, byte [0x55E8CC3348000001] ; retn 0xFFFE ; (1 found)
0x7b645: add eax, 0x000002B8 ; ror byte [rax-0x7D], 0xC4 ; pop rax ; ret ; (1 found)
0x7961d: add eax, 0x000002B9 ; add byte [rdx+0x7DE80453], cl ; ret ; (1 found)
0x75132: add eax, 0x00003109 ; mov qword [rcx], rax ; xor eax, eax ; ret ; (1 found)
0x9e23: add eax, 0x0000B001 ; mov  [rcx], eax ; mov  [rcx+0x04], r8d ; ret ; (1 found)
0x7a67d: add eax, 0x0000BBB9 ; ror byte [rbx-0x3B7CB73F], 0x28 ; ret ; (1 found)
0x37e12: add eax, 0x0002DB59 ; ret ; (1 found)
0x31523: add eax, 0x000348F0 ; add rsp, 0x30 ; pop rbx ; ret ; (1 found)
0x313b0: add eax, 0x00034A3B ; add rsp, 0x38 ; ret ; (1 found)
0x34a86: add eax, 0x000355D5 ; add rsp, 0x30 ; pop rbx ; ret ; (1 found)
0x3392c: add eax, 0x0003672F ; add rsp, 0x30 ; pop rbx ; ret ; (1 found)
0x31dbd: add eax, 0x0003731E ; add rsp, 0x38 ; ret ; (1 found)
0x2e6b5: add eax, 0x00038E0E ; ret ; (1 found)
0x2fee6: add eax, 0x0003A18D ; ret ; (1 found)
0x2d6d9: add eax, 0x0003C9E6 ; ret ; (1 found)
0x2a6e6: add eax, 0x0003D01D ; ret ; (1 found)
0x2c075: add eax, 0x0003DFE6 ; mov eax, 0xC0000001 ; ret ; (1 found)
0x2b34c: add eax, 0x00048CFF ; lea rcx, qword [rbp-0x28] ; mov rax, qword [rax+0x08] ; call rax ; (1 found)
0x4a52: add eax, 0x00048EE9 ; mov qword [rcx], rax ; xor eax, eax ; ret ; (1 found)
0x1c017: add eax, 0x0004BBBC ; adc eax, 0xE9000000 ; mov al, byte [0x0D3B404D8BFFFEC3] ; retn 0x04BC ; (1 found)
0x17001: add eax, 0x00050D12 ; ret ; (1 found)
0x133a8: add eax, 0x000519E3 ; ret ; (1 found)
0x13351: add eax, 0x00051A52 ; ret ; (1 found)
0x158dc: add eax, 0x000525BF ; mov  [0x0000000000067EA8], 0x00000000 ; xor eax, eax ; ret ; (1 found)
0x156da: add eax, 0x000526F1 ; add rsp, 0x28 ; ret ; (1 found)
0x152ff: add eax, 0x00052C24 ; and  [0x0000000000067F28], 0xFFFFFFFC ; ret ; (1 found)
0x13d40: add eax, 0x00053F6B ; add rsp, 0x48 ; ret ; (1 found)
0x13399: add eax, 0x00054B9A ; ret ; (1 found)
0xc055: add eax, 0x00059C36 ; ret ; (1 found)
0x53e0: add eax, 0x0006096B ; add rsp, 0x40 ; pop rdi ; ret ; (1 found)
0x5314: add eax, 0x00060A3F ; mov qword [0x0000000000065E18], rax ; add rsp, 0x28 ; ret ; (1 found)
0x531b: add eax, 0x00060AF8 ; add rsp, 0x28 ; ret ; (1 found)
0x4f1c: add eax, 0x00060D9F ; ret ; (1 found)
0x4962: add eax, 0x00060E31 ; mov eax,  [rax+0x000000F0] ; ret ; (1 found)
0x44dd: add eax, 0x000614A2 ; ret ; (1 found)
0x4702: add eax, 0x00061589 ; ret ; (1 found)
0x46b2: add eax, 0x00061741 ; ret ; (1 found)
0x4503: add eax, 0x00063128 ; ret ; (1 found)
0x44f5: add eax, 0x00063136 ; mov qword [0x0000000000067638], rax ; mov qword [0x0000000000067630], rax ; ret ; (1 found)
0x44fc: add eax, 0x00063137 ; mov qword [0x0000000000067630], rax ; ret ; (1 found)
0x4862: add eax, 0x000633D1 ; movsxd r8, rcx ; mov  [r8+rax], edx ; ret ; (1 found)
0x4842: add eax, 0x000633F1 ; movsxd rdx, rcx ; mov eax,  [rdx+rax] ; ret ; (1 found)
0x4512: add eax, 0x00063791 ; ret ; (1 found)
0x2abe: add eax, 0x00065175 ; mov  [rax+0x00000300], edx ; ret ; (1 found)
0xc009: add eax, 0x000CE800 ; add byte [rax], al ; add rsp, 0x38 ; ret ; (1 found)
0x12985: add eax, 0x00786183 ; ret ; (1 found)
0x17c80: add eax, 0x0154894A ; clc ; ret ; (1 found)
0x16ece: add eax, 0x02 ; ret ; (1 found)
0x3c090: add eax, 0x05 ; ret ; (1 found)
0x12961: add eax, 0x06 ; lea rax, qword [rcx+rax*4] ; ret ; (1 found)
0x10b08: add eax, 0x07750000 ; xor eax, eax ; add rsp, 0x28 ; ret ; (1 found)
0x1540d: add eax, 0x0FC08500 ; test byte [rdx], dl ; retn 0x0000 ; (1 found)
0x13949: add eax, 0x158D4800 ; mov es, word [rcx+0x05] ; add byte [rax-0x007F], cl ; ret ; (1 found)
0x15302: add eax, 0x1D258300 ; sub al, 0x05 ; add ah, bh ; ret ; (1 found)
0x7e4c8: add eax, 0x28C48348 ; ret ; (5 found)
0x43526: add eax, 0x33002383 ; fisttp  [rax-0x75] ; ret ; (1 found)
0x15678: add eax, 0x3D894800 ; jmp qword [rdi] ; (1 found)
0x82b16: add eax, 0x4109428A ; mov byte [rcx+0x04], al ; ret ; (1 found)
0x13d7e: add eax, 0x441F0F00 ; add byte [rax], al ; add rsp, 0x28 ; ret ; (2 found)
0x9eb7: add eax, 0x4800067A ; add esp, 0x28 ; ret ; (1 found)
0x144a4: add eax, 0x48067700 ; add esp, 0x20 ; pop rbx ; ret ; (1 found)
0x13393: add eax, 0x48087300 ; add eax,  [0x0000000000067F38] ; ret ; (1 found)
0x474d7: add eax, 0x48FFFCB0 ; add esp, 0x28 ; ret ; (1 found)
0x48d17: add eax, 0x48FFFCE7 ; add esp, 0x20 ; pop rbx ; ret ; (1 found)
0x298ac: add eax, 0x73284839 ; or cl, byte [rax-0x75] ; add byte [rax+0x3B], cl ; retn 0xEE75 ; (1 found)
0x89334: add eax, 0x73D23B4C ; sub al, 0x8B ; ret ; (1 found)
0x5240: add eax, 0x75C98400 ; add eax, 0x28C48348 ; ret ; (2 found)
0x1098e: add eax, 0x7701F883 ; add al, 0x83 ; or al, 0x02 ; ret ; (1 found)
0x62f4: add eax, 0x8BCB8B00 ; ret ; (1 found)
0x133a3: add eax, 0x8D480000 ; add eax, 0x000519E3 ; ret ; (1 found)
0x1352b: add eax, 0xABF30000 ; add rsp, 0x20 ; pop rdi ; ret ; (1 found)
0x39f8c: add eax, 0xC0000002 ; ret ; (1 found)
0x1641f: add eax, 0xC0330000 ; ret ; (1 found)
0x12c89: add eax, 0xC08A4100 ; add rsp, 0x38 ; ret ; (1 found)
0x1337d: add eax, 0xC1034800 ; ret ; (1 found)
0x76f67: add eax, 0xC18A03B1 ; ret ; (1 found)
0x8ef4: add eax, 0xC3017700 ; mov  [0x0000000000067C98], ecx ; ret ; (1 found)
0x13d43: add eax, 0xC4834800 ; ret ; (1 found)
0xc04b: add eax, 0xDC3CBA00 ; add rax, rcx ; mov qword [0x0000000000065C90], rax ; ret ; (1 found)
0x43fa2: add eax, 0xEBD88B48 ; or byte [rax+0x2B], cl ; ret ; (1 found)
0x78160: add eax, 0xFFFB543B ; mov qword [rcx+0x30], rax ; mov eax, edx ; ret ; (1 found)
0x32857: add eax, 0xFFFD1F54 ; mov rax, r8 ; ret ; (1 found)
0x327e7: add eax, 0xFFFD1F64 ; mov rax, r8 ; ret ; (1 found)
0x8c418: add eax, 0xFFFD864B ; ret ; (1 found)
0x8c40a: add eax, 0xFFFD8659 ; mov qword [0x0000000000064A70], rax ; mov qword [0x0000000000064A68], rax ; ret ; (1 found)
0x8c411: add eax, 0xFFFD865A ; mov qword [0x0000000000064A68], rax ; ret ; (1 found)
0x901af: add eax, 0xFFFD9ED4 ; add rsp, 0x28 ; ret ; (1 found)
0x9018b: add eax, 0xFFFD9EF8 ; add rsp, 0x28 ; ret ; (1 found)
0x8bec9: add eax, 0xFFFDB092 ; xor eax, eax ; add rsp, 0x28 ; ret ; (1 found)
0x88028: add eax, 0xFFFDC86B ; ret ; (1 found)
0x36372: add eax, 0xFFFE10D9 ; ret ; (1 found)
0x88072: add eax, 0xFFFE92A9 ; lea rcx, qword [0x000000000007E4C0] ; mov qword [rax+0x00000130], rcx ; ret ; (1 found)
0x7e833: add eax, 0xFFFE9432 ; add rsp, 0x28 ; ret ; (1 found)
0x7a18a: add eax, 0xFFFEA771 ; mov qword [r9], rax ; xor eax, eax ; ret ; (1 found)
0x7d3b1: add eax, 0xFFFEA852 ; ret ; (1 found)
0x782a1: add eax, 0xFFFEC60A ; shr eax, 0x03 ; and eax, 0x01 ; ret ; (1 found)
0x4467: add eax, eax ; and  [rdx+rax*8+0x04], 0x00000000 ; mov  [rdx+rax*8], 0x00000002 ; ret ; (2 found)
0x1654e: add eax, eax ; mov  [rdx], eax ; xor eax, eax ; ret ; (1 found)
0xc10a: add eax, eax ; mov eax,  [r8+rax*8+0x08] ; ret ; (1 found)
0x7b22: add eax, eax ; ret ; (1 found)
0x795a6: add eax, ebp ; cld ; ret ; (1 found)
0x8e1dc: add eax, ebp ; fdivrp st4, st0 ; stc ; call qword [rax-0x001FD517] ; (1 found)
0x76381: add eax, ebp ; mov ecx, 0x8BFFF9D4 ; ret ; (1 found)
0xc051: add eax, ecx ; mov qword [0x0000000000065C90], rax ; ret ; (1 found)
0xbda8: add eax, ecx ; ret ; (2 found)
0x17c84: add eax, edi ; ret ; (1 found)
0x14b56: add eax, edx ; add eax, r10d ; ret ; (1 found)
0x47c04: add eax, edx ; add rsp, 0x20 ; pop rdi ; ret ; (1 found)
0x14b59: add eax, edx ; ret ; (1 found)
0x48716: add eax, esi ; or  [rsp+0x00], 0x00000000 ; xor eax, eax ; ret ; (1 found)
0x17d26: add eax, esi ; ret ; (1 found)
0x14b58: add eax, r10d ; ret ; (1 found)
0x17d25: add eax, r14d ; ret ; (1 found)
0x1654d: add eax, r8d ; mov  [rdx], eax ; xor eax, eax ; ret ; (1 found)
0x7b21: add eax, r8d ; ret ; (1 found)
0x352e1: add ebp, eax ; popfq ; or edi, esi ; jmp qword [rbp-0x75] ; (1 found)
0x12967: add ebx, 0x49FC4A8D ; lea eax,  [rax+0x19] ; lea rax, qword [rax+rcx*4] ; ret ; (1 found)
0xa399: add ebx, eax ; bts eax, 0x15 ; mov  [r8+r10+0x04], eax ; ret ; (1 found)
0x8ef7: add ebx, eax ; mov  [0x0000000000067C98], ecx ; ret ; (1 found)
0x15444: add ebx, eax ; movzx eax, word [rcx+0x52] ; mov word [rcx+0x3A], ax ; ret ; (1 found)
0x163e4: add ebx, eax ; xor al, al ; ret ; (6 found)
0x91b1: add ebx, edi ; add rsp, 0x20 ; pop rbx ; ret ; (1 found)
0x2b155: add ebx, edi ; add rsp, 0x20 ; pop rcx ; ret ; (1 found)
0x26067: add ecx,  [rax+0x3B] ; ret ; (1 found)
0x8aa26: add ecx,  [rax-0x01] ; ret ; (1 found)
0x29fc9: add ecx,  [rax-0x75] ; or byte [rax-0x73], cl ; dec  [r8-0x7B] ; ret ; (1 found)
0x1e3a7: add ecx,  [rax-0x75] ; ret ; (2 found)
0x1f6a: add ecx,  [rax-0x7B] ; retn 0x840F ; (1 found)
0x7996d: add ecx,  [rax-0x7D] ; retn 0xE810 ; (1 found)
0x81231: add ecx,  [rax-0x7D] ; retn 0xEB0A ; (1 found)
0x81241: add ecx,  [rax-0x7D] ; retn 0xEE14 ; (1 found)
0x8f691: add ecx,  [rbp-0x74B700BE] ; pop rsp ; and al, 0x08 ; ret ; (1 found)
0x7bc21: add ecx,  [rbx-0x74B73C3F] ; or eax, 0xFFFE902C ; mov qword [rdx], rcx ; ret ; (1 found)
0x34813: add ecx,  [rcx+0x0D8D4806] ; ret ; (1 found)
0x82b3b: add ecx,  [rdx] ; enter 0x8841, 0x09 ; ret ; (1 found)
0x3635c: add ecx, 0x00000FFF ; mov  [r8+0x08], ecx ; ret ; (1 found)
0x16523: add ecx, 0x50 ; add ecx, r8d ; mov  [rdx], ecx ; ret ; (1 found)
0x16527: add ecx, eax ; mov  [rdx], ecx ; ret ; (1 found)
0x20b0c: add ecx, ebp ; ret ; (1 found)
0x49c1: add ecx, edi ; shl rdx, 0x20 ; or rax, rdx ; ret ; (1 found)
0x16526: add ecx, r8d ; mov  [rdx], ecx ; ret ; (1 found)
0x2d20d: add edi,  [rax-0x3FFFFF45] ; mov ecx, 0xC0000001 ; cmovne eax, ecx ; ret ; (1 found)
0x8a417: add edi,  [rbx] ; retn 0x5F72 ; (1 found)
0x12a3e: add edi,  [rbx] ; retn 0x870F ; (2 found)
0x45b83: add edi, edi ; adc eax, 0x0002BD36 ; add rsp, 0x38 ; ret ; (1 found)
0x3595e: add edi, edi ; adc eax, 0x0003BF5B ; add rsp, 0x28 ; ret ; (1 found)
0x32ae6: add edx, 0x0A ; out dx, al ; ret ; (1 found)
0x32aec: add edx, 0x14 ; out dx, al ; ret ; (1 found)
0x40fc6: add edx, eax ; out dx, al ; mov eax, 0x00000001 ; ret ; (1 found)
0x41037: add edx, eax ; out dx, ax ; mov eax, 0x00000002 ; ret ; (1 found)
0x40fc5: add edx, r8d ; out dx, al ; mov eax, 0x00000001 ; ret ; (1 found)
0x41036: add edx, r8d ; out dx, ax ; mov eax, 0x00000002 ; ret ; (1 found)
0x2fca1: add esi,  [rax-0x3FCD3CFF] ; ret ; (2 found)
0x7b102: add esi,  [rcx+rbp*2-0x09] ; ret ; (1 found)
0xc9f2: add esi,  [rdx+rsi-0x75] ; ret ; (1 found)
0x17208: add esi, esi ; retn 0x740F ; (1 found)
0x205ed: add esp,  [rdi+rdi*8] ; jmp qword [rsi+0x03] ; (1 found)
0x4299d: add esp,  [rsi+0x3B] ; ret ; (1 found)
0x97e5: add esp, 0x00000080 ; pop rbx ; ret ; (2 found)
0x7a897: add esp, 0x00000080 ; pop rdi ; ret ; (4 found)
0x411aa: add esp, 0x00000088 ; pop rdi ; pop rbx ; ret ; (1 found)
0x8bf64: add esp, 0x00000088 ; ret ; (4 found)
0x67bb: add esp, 0x00000090 ; pop rbp ; ret ; (1 found)
0x33071: add esp, 0x00000090 ; pop rdi ; ret ; (1 found)
0x7558c: add esp, 0x000000A0 ; pop rbp ; ret ; (2 found)
0x75f01: add esp, 0x000000B0 ; pop rbp ; ret ; (2 found)
0x7bb00: add esp, 0x000000B8 ; ret ; (1 found)
0x8affd: add esp, 0x000000C0 ; pop rbp ; ret ; (2 found)
0x10ec9: add esp, 0x000000D0 ; pop rbp ; ret ; (1 found)
0x75d2e: add esp, 0x000000D8 ; pop rbx ; pop rbp ; ret ; (1 found)
0xe119: add esp, 0x000000E0 ; pop rbp ; ret ; (4 found)
0x36689: add esp, 0x000000E0 ; pop rdi ; ret ; (1 found)
0x75516: add esp, 0x000000F0 ; pop rbp ; ret ; (1 found)
0x30732: add esp, 0x00000110 ; pop rdi ; ret ; (1 found)
0x43e77: add esp, 0x00000140 ; pop rdi ; ret ; (1 found)
0x158b9: add esp, 0x00000150 ; pop rbp ; ret ; (1 found)
0x8c539: add esp, 0x00000200 ; pop rbp ; ret ; (1 found)
0x35b23: add esp, 0x00003030 ; pop rbp ; ret ; (1 found)
0x76347: add esp, 0x20 ; pop r14 ; ret ; (40 found)
0x77de2: add esp, 0x20 ; pop r15 ; ret ; (2 found)
0x1478f: add esp, 0x20 ; pop rbp ; ret ; (1 found)
0x7638a: add esp, 0x20 ; pop rbx ; ret ; (117 found)
0x7956: add esp, 0x20 ; pop rcx ; ret ; (7 found)
0x751fc: add esp, 0x20 ; pop rdi ; ret ; (260 found)
0x7717a: add esp, 0x20 ; pop rsi ; ret ; (3 found)
0x7575b: add esp, 0x28 ; ret ; (241 found)
0x173fa: add esp, 0x28 ; sti ; hlt ; ret ; (1 found)
0x17821: add esp, 0x28 ; xor eax, eax ; ret ; (1 found)
0x7e324: add esp, 0x30 ; pop r14 ; ret ; (13 found)
0x8097e: add esp, 0x30 ; pop rbp ; ret ; (4 found)
0x75266: add esp, 0x30 ; pop rbx ; ret ; (38 found)
0x84af: add esp, 0x30 ; pop rcx ; ret ; (1 found)
0x7a38e: add esp, 0x30 ; pop rdi ; ret ; (76 found)
0x7a10d: add esp, 0x30 ; pop rsi ; ret ; (1 found)
0x7501e: add esp, 0x38 ; ret ; (72 found)
0x3ba1: add esp, 0x40 ; pop r14 ; ret ; (4 found)
0x10fe: add esp, 0x40 ; pop r15 ; ret ; (6 found)
0x7f300: add esp, 0x40 ; pop rbp ; ret ; (3 found)
0x75854: add esp, 0x40 ; pop rbx ; ret ; (19 found)
0x75327: add esp, 0x40 ; pop rdi ; ret ; (31 found)
0x41ffe: add esp, 0x40 ; pop rsi ; ret ; (1 found)
0x75183: add esp, 0x48 ; ret ; (17 found)
0x84430: add esp, 0x50 ; pop r14 ; ret ; (2 found)
0x7f0cb: add esp, 0x50 ; pop rbp ; ret ; (5 found)
0x7a47a: add esp, 0x50 ; pop rbx ; ret ; (4 found)
0x7e16b: add esp, 0x50 ; pop rdi ; ret ; (7 found)
0x2ba7: add esp, 0x58 ; pop rdi ; pop rsi ; ret ; (2 found)
0x7b64c: add esp, 0x58 ; ret ; (8 found)
0x75b08: add esp, 0x60 ; pop rbp ; ret ; (5 found)
0x856b: add esp, 0x60 ; pop rbx ; ret ; (1 found)
0x1950: add esp, 0x60 ; pop rcx ; ret ; (1 found)
0x76dca: add esp, 0x60 ; pop rdi ; ret ; (5 found)
0x29e57: add esp, 0x68 ; ret ; (7 found)
0x76c24: add esp, 0x70 ; pop rdi ; ret ; (4 found)
0x3ca3b: add qword [rax+0x0B], rcx ; retn 0x8949 ; (1 found)
0x2ea19: add qword [rax], rax ; add byte [rbx+0x15FF48D3], cl ; retn 0x0429 ; (1 found)
0x80dea: add qword [rax], rax ; shr cl, 0xE2 ; retn 0xFFFF ; (1 found)
0x3e039: add qword [rdi], r9 ; xchg eax, esp ; retn 0xE9C0 ; (1 found)
0x13392: add r8, 0x0000000048087300 ; add eax,  [0x0000000000067F38] ; ret ; (1 found)
0x2fb3b: add r8, qword [r8] ; add rsp, 0x28 ; ret ; (1 found)
0x45b16: add r8L, byte [r8] ; add rsp, 0x20 ; pop rbx ; ret ; (2 found)
0x49936: add r8d,  [rax] ; xor eax, eax ; add rsp, 0x28 ; ret ; (1 found)
0x7961c: add r8d, 0x000002B9 ; add byte [rdx+0x7DE80453], cl ; ret ; (1 found)
0x13948: add r8d, 0x158D4800 ; mov es, word [rcx+0x05] ; add byte [rax-0x007F], cl ; ret ; (1 found)
0x82b15: add r8d, 0x4109428A ; mov byte [rcx+0x04], al ; ret ; (1 found)
0x8cbf7: add r9L, byte [r9+0x3B] ; ret ; (2 found)
0x10b07: add rax, 0x0000000007750000 ; xor eax, eax ; add rsp, 0x28 ; ret ; (1 found)
0xc04a: add rax, 0x00000000DC3CBA00 ; add rax, rcx ; mov qword [0x0000000000065C90], rax ; ret ; (1 found)
0x3c08f: add rax, 0x05 ; ret ; (1 found)
0x12960: add rax, 0x06 ; lea rax, qword [rcx+rax*4] ; ret ; (1 found)
0x1334f: add rax, qword [0x0000000000064DA8] ; ret ; (1 found)
0x156d8: add rax, qword [0x0000000000067DD0] ; add rsp, 0x28 ; ret ; (1 found)
0x13397: add rax, qword [0x0000000000067F38] ; ret ; (1 found)
0x3340: add rax, qword [r9-0x0A] ; ret ; (1 found)
0x31525: add rax, qword [rax] ; add rsp, 0x30 ; pop rbx ; ret ; (1 found)
0x313b2: add rax, qword [rax] ; add rsp, 0x38 ; ret ; (1 found)
0x181b2: add rax, qword [rcx+0x48] ; ret ; (1 found)
0x4466: add rax, rax ; and  [rdx+rax*8+0x04], 0x00000000 ; mov  [rdx+rax*8], 0x00000002 ; ret ; (2 found)
0xc109: add rax, rax ; mov eax,  [r8+rax*8+0x08] ; ret ; (1 found)
0xc050: add rax, rcx ; mov qword [0x0000000000065C90], rax ; ret ; (1 found)
0xbda6: add rax, rcx ; ret ; (3 found)
0x14b55: add rax, rdx ; add eax, r10d ; ret ; (1 found)
0x97e4: add rsp, 0x0000000000000080 ; pop rbx ; ret ; (2 found)
0x7a896: add rsp, 0x0000000000000080 ; pop rdi ; ret ; (4 found)
0x411a9: add rsp, 0x0000000000000088 ; pop rdi ; pop rbx ; ret ; (1 found)
0x8bf63: add rsp, 0x0000000000000088 ; ret ; (4 found)
0x67ba: add rsp, 0x0000000000000090 ; pop rbp ; ret ; (1 found)
0x33070: add rsp, 0x0000000000000090 ; pop rdi ; ret ; (1 found)
0x7558b: add rsp, 0x00000000000000A0 ; pop rbp ; ret ; (2 found)
0x75f00: add rsp, 0x00000000000000B0 ; pop rbp ; ret ; (2 found)
0x7baff: add rsp, 0x00000000000000B8 ; ret ; (1 found)
0x8affc: add rsp, 0x00000000000000C0 ; pop rbp ; ret ; (2 found)
0x10ec8: add rsp, 0x00000000000000D0 ; pop rbp ; ret ; (1 found)
0x75d2d: add rsp, 0x00000000000000D8 ; pop rbx ; pop rbp ; ret ; (1 found)
0xe118: add rsp, 0x00000000000000E0 ; pop rbp ; ret ; (4 found)
0x36688: add rsp, 0x00000000000000E0 ; pop rdi ; ret ; (1 found)
0x75515: add rsp, 0x00000000000000F0 ; pop rbp ; ret ; (1 found)
0x30731: add rsp, 0x0000000000000110 ; pop rdi ; ret ; (1 found)
0x43e76: add rsp, 0x0000000000000140 ; pop rdi ; ret ; (1 found)
0x158b8: add rsp, 0x0000000000000150 ; pop rbp ; ret ; (1 found)
0x8c538: add rsp, 0x0000000000000200 ; pop rbp ; ret ; (1 found)
0x35b22: add rsp, 0x0000000000003030 ; pop rbp ; ret ; (1 found)
0x76345: add rsp, 0x20 ; pop r14 ; ret ; (79 found)
0x77de0: add rsp, 0x20 ; pop r15 ; ret ; (4 found)
0x1478e: add rsp, 0x20 ; pop rbp ; ret ; (1 found)
0x76389: add rsp, 0x20 ; pop rbx ; ret ; (117 found)
0x7955: add rsp, 0x20 ; pop rcx ; ret ; (8 found)
0x751fa: add rsp, 0x20 ; pop rdi ; ret ; (325 found)
0x77179: add rsp, 0x20 ; pop rsi ; ret ; (3 found)
0x7575a: add rsp, 0x28 ; ret ; (241 found)
0x173f9: add rsp, 0x28 ; sti ; hlt ; ret ; (1 found)
0x17820: add rsp, 0x28 ; xor eax, eax ; ret ; (1 found)
0x7e323: add rsp, 0x30 ; pop r14 ; ret ; (14 found)
0x8097d: add rsp, 0x30 ; pop rbp ; ret ; (4 found)
0x75265: add rsp, 0x30 ; pop rbx ; ret ; (39 found)
0x84ae: add rsp, 0x30 ; pop rcx ; ret ; (1 found)
0x7a38d: add rsp, 0x30 ; pop rdi ; ret ; (115 found)
0x7a10b: add rsp, 0x30 ; pop rsi ; ret ; (2 found)
0x7501d: add rsp, 0x38 ; ret ; (72 found)
0x3ba0: add rsp, 0x40 ; pop r14 ; ret ; (4 found)
0x10fd: add rsp, 0x40 ; pop r15 ; ret ; (6 found)
0x7f2ff: add rsp, 0x40 ; pop rbp ; ret ; (3 found)
0x75853: add rsp, 0x40 ; pop rbx ; ret ; (19 found)
0x75326: add rsp, 0x40 ; pop rdi ; ret ; (31 found)
0x41ffd: add rsp, 0x40 ; pop rsi ; ret ; (1 found)
0x75182: add rsp, 0x48 ; ret ; (17 found)
0x8442f: add rsp, 0x50 ; pop r14 ; ret ; (2 found)
0x7f0ca: add rsp, 0x50 ; pop rbp ; ret ; (5 found)
0x7a479: add rsp, 0x50 ; pop rbx ; ret ; (4 found)
0x7e16a: add rsp, 0x50 ; pop rdi ; ret ; (7 found)
0x2ba6: add rsp, 0x58 ; pop rdi ; pop rsi ; ret ; (2 found)
0x7b64b: add rsp, 0x58 ; ret ; (8 found)
0x75b07: add rsp, 0x60 ; pop rbp ; ret ; (5 found)
0x856a: add rsp, 0x60 ; pop rbx ; ret ; (1 found)
0x194f: add rsp, 0x60 ; pop rcx ; ret ; (1 found)
0x76dc9: add rsp, 0x60 ; pop rdi ; ret ; (5 found)
0x29e56: add rsp, 0x68 ; ret ; (7 found)
0x76c23: add rsp, 0x70 ; pop rdi ; ret ; (4 found)
0x1339f: and  [0x0000000000064D90], 0x00000000 ; lea rax, qword [0x0000000000064D90] ; ret ; (1 found)
0x30628: and  [0x0000000000065C90], 0x00000000 ; mov byte [0x0000000000065C80], 0x00 ; add rsp, 0x28 ; ret ; (1 found)
0x15304: and  [0x0000000000067F28], 0xFFFFFFFC ; ret ; (1 found)
0x301ce: and  [0x000000000006A148], 0x00000000 ; add rsp, 0x28 ; ret ; (1 found)
0xdccb: and  [rax+0x000000E0], 0xFFFFF0FF ; add rsp, 0x38 ; ret ; (1 found)
0x815ac: and  [rax-0x75], ecx ; ret ; (1 found)
0x8df75: and  [rax], 0x00000000 ; mov  [rdx], 0x00000004 ; ret ; (1 found)
0x821b8: and  [rax], eax ; add byte [rax-0x00224E17], dl ; jmp qword [rbp-0x75] ; (1 found)
0x445c8: and  [rbx+0x20], 0x00000000 ; add rsp, 0x20 ; pop rbx ; ret ; (1 found)
0x49a1: and  [rcx+0x08], 0x00000000 ; mov  [rcx+0x20], eax ; ret ; (1 found)
0x4a70: and  [rcx+0x10], 0xFFFFFFFE ; ret ; (1 found)
0x12986: and  [rcx+0x78], 0x00000000 ; ret ; (1 found)
0x1626f: and  [rcx-0x00BF0000], edi ; ret ; (1 found)
0x4469: and  [rdx+rax*8+0x04], 0x00000000 ; mov  [rdx+rax*8], 0x00000002 ; ret ; (2 found)
0x2f874: and  [rdx], 0x00000000 ; mov rbx, qword [rsp+0x08] ; mov rdi, qword [rsp+0x10] ; ret ; (1 found)
0x8b9fd: and  [rdx], ecx ; movzx eax, word [rcx+0x04] ; mov qword [r8], rax ; ret ; (1 found)
0x8b9fc: and  [rdx], r9d ; movzx eax, word [rcx+0x04] ; mov qword [r8], rax ; ret ; (1 found)
0x7a29a: and ah, byte [rdx-0x07] ; inc  [rbp-0x3F66F040] ; add rsp, 0x28 ; ret ; (1 found)
0x8097b: and al, 0x00 ; add rsp, 0x30 ; pop rbp ; ret ; (1 found)
0x499f: and al, 0x00 ; and  [rcx+0x08], 0x00000000 ; mov  [rcx+0x20], eax ; ret ; (1 found)
0x3b6bc: and al, 0x00 ; mov rbx, qword [rsp+0x08] ; mov rdi, qword [rsp+0x10] ; ret ; (1 found)
0x7b4bb: and al, 0x00 ; ret ; (6 found)
0x4871a: and al, 0x00 ; xor eax, eax ; ret ; (1 found)
0x108d0: and al, 0x01 ; ret ; (1 found)
0x49fe: and al, 0x08 ; mov  [r10], ecx ; mov  [r11], edx ; ret ; (1 found)
0x401b2: and al, 0x08 ; mov al, r11L ; ret ; (1 found)
0x5ddc: and al, 0x08 ; mov al, r8L ; ret ; (1 found)
0x4a291: and al, 0x08 ; mov al, r9L ; mov rdi, qword [rsp+0x10] ; ret ; (1 found)
0x32d64: and al, 0x08 ; mov byte [r9+0x13], al ; ret ; (1 found)
0x8aa86: and al, 0x08 ; mov eax, r9d ; mov rdi, qword [rsp+0x10] ; ret ; (1 found)
0x3db90: and al, 0x08 ; mov rax, r8 ; ret ; (2 found)
0x2f87a: and al, 0x08 ; mov rdi, qword [rsp+0x10] ; ret ; (5 found)
0x7e39: and al, 0x08 ; mov rsi, qword [rsp+0x10] ; mov rdi, qword [rsp+0x18] ; ret ; (8 found)
0x7bea7: and al, 0x08 ; ret ; (7 found)
0x32c25: and al, 0x08 ; sete cl ; mov byte [r10+0x15], cl ; ret ; (1 found)
0x428cf: and al, 0x08 ; xor eax, eax ; mov rsi, qword [rsp+0x10] ; ret ; (1 found)
0x8d96: and al, 0x10 ; mov  [r8], r9d ; ret ; (1 found)
0x76cb4: and al, 0x10 ; mov rdi, qword [rsp+0x18] ; ret ; (12 found)
0x90149: and al, 0x10 ; mov rsi, qword [rsp+0x18] ; mov rdi, qword [rsp+0x20] ; ret ; (2 found)
0x8f4f5: and al, 0x10 ; mov rsi, qword [rsp+0x18] ; ret ; (1 found)
0x8aa8e: and al, 0x10 ; ret ; (8 found)
0x223f4: and al, 0x16 ; add byte [rax], al ; add rsp, 0x28 ; ret ; (1 found)
0x253bf: and al, 0x18 ; mov  [r14], r11d ; mov r14, qword [rsp+0x20] ; ret ; (1 found)
0x23e5e: and al, 0x18 ; mov rdi, qword [rsp+0x20] ; mov  [r9], r10d ; ret ; (1 found)
0x2c506: and al, 0x18 ; mov rdi, qword [rsp+0x20] ; pop rcx ; ret ; (1 found)
0x9014e: and al, 0x18 ; mov rdi, qword [rsp+0x20] ; ret ; (2 found)
0x76cb9: and al, 0x18 ; ret ; (14 found)
0x2f6a8: and al, 0x1F ; std ; dec  [rax+0x2B] ; ret ; (1 found)
0xc1aa: and al, 0x20 ; add  [rbp-0x75], eax ; ret ; (2 found)
0x1bf47: and al, 0x20 ; add al, ch ; mov al, byte [0x37880FC085000076] ; retn 0xFFFE ; (2 found)
0x23e63: and al, 0x20 ; mov  [r9], r10d ; ret ; (1 found)
0x8f4f0: and al, 0x20 ; mov rbp, qword [rsp+0x10] ; mov rsi, qword [rsp+0x18] ; ret ; (1 found)
0xc0af: and al, 0x20 ; mov rcx, rbx ; mov rax, qword [rax+0x18] ; call rax ; (2 found)
0x2b1b2: and al, 0x20 ; mov rcx, rbx ; mov rax, qword [rax+0x28] ; call rax ; (2 found)
0x7bbff: and al, 0x20 ; mov rdi, qword [rsp+0x28] ; pop r14 ; ret ; (3 found)
0x1ef7: and al, 0x20 ; mov rsi, qword [rsp+0x28] ; pop r14 ; ret ; (2 found)
0x2c50b: and al, 0x20 ; pop rcx ; ret ; (1 found)
0x90153: and al, 0x20 ; ret ; (3 found)
0x8da0d: and al, 0x20 ; retn 0x0000 ; (2 found)
0x48c2: and al, 0x28 ; mov qword [rax], r8 ; mov al, 0x01 ; ret ; (2 found)
0x7bc04: and al, 0x28 ; pop r14 ; ret ; (5 found)
0x5f27: and al, 0x30 ; add rsp, 0x20 ; pop r14 ; ret ; (1 found)
0x1478c: and al, 0x30 ; add rsp, 0x20 ; pop rbp ; ret ; (1 found)
0xbe82: and al, 0x30 ; add rsp, 0x20 ; pop rbx ; ret ; (2 found)
0x922e: and al, 0x30 ; add rsp, 0x20 ; pop rcx ; ret ; (1 found)
0x76e12: and al, 0x30 ; add rsp, 0x20 ; pop rdi ; ret ; (97 found)
0x77177: and al, 0x30 ; add rsp, 0x20 ; pop rsi ; ret ; (1 found)
0x15ba1: and al, 0x30 ; add rsp, 0x28 ; ret ; (4 found)
0x37e4c: and al, 0x30 ; mov qword [rax], r11 ; xor al, al ; ret ; (2 found)
0x37e7b: and al, 0x30 ; mov qword [rax], rcx ; mov al, 0x01 ; ret ; (2 found)
0x2ac12: and al, 0x30 ; mov rax, qword [rax+0x20] ; call rax ; (2 found)
0x588c: and al, 0x30 ; pop r15 ; pop r14 ; ret ; (3 found)
0x15b9d: and al, 0x32 ; mov eax,  [rsp+0x30] ; add rsp, 0x28 ; ret ; (2 found)
0x7953: and al, 0x38 ; add rsp, 0x20 ; pop rcx ; ret ; (3 found)
0x7802d: and al, 0x38 ; add rsp, 0x20 ; pop rdi ; ret ; (80 found)
0x7948a: and al, 0x38 ; mov  [rax], r8d ; mov eax, 0xC0000023 ; ret ; (2 found)
0x2ad6f: and al, 0x38 ; mov r8, r10 ; mov rax, qword [rax+0x18] ; call rax ; (2 found)
0x76344: and al, 0x40 ; add rsp, 0x20 ; pop r14 ; ret ; (4 found)
0x418b6: and al, 0x40 ; add rsp, 0x20 ; pop rcx ; ret ; (1 found)
0x751f9: and al, 0x40 ; add rsp, 0x20 ; pop rdi ; ret ; (47 found)
0x7ddfd: and al, 0x40 ; add rsp, 0x30 ; pop rdi ; ret ; (22 found)
0x7a10a: and al, 0x40 ; add rsp, 0x30 ; pop rsi ; ret ; (1 found)
0x41efd: and al, 0x40 ; xor byte [rbp-0x25], 0x48 ; add esp, 0x38 ; ret ; (2 found)
0x772d0: and al, 0x48 ; add rsp, 0x20 ; pop r14 ; ret ; (35 found)
0x77ddf: and al, 0x48 ; add rsp, 0x20 ; pop r15 ; ret ; (2 found)
0x827ad: and al, 0x48 ; add rsp, 0x20 ; pop rdi ; ret ; (18 found)
0xce19: and al, 0x48 ; add rsp, 0x30 ; pop r14 ; ret ; (1 found)
0x15418: and al, 0x48 ; add rsp, 0x30 ; pop rbx ; ret ; (2 found)
0x7ddaa: and al, 0x48 ; add rsp, 0x30 ; pop rdi ; ret ; (17 found)
0x42063: and al, 0x48 ; xor byte [rbx+rbx*8+0x48], 0x81 ; ret ; (2 found)
0x2ce9a: and al, 0x50 ; add rsp, 0x30 ; pop r14 ; ret ; (2 found)
0x3f7d1: and al, 0x50 ; add rsp, 0x30 ; pop rbp ; ret ; (1 found)
0x7a38b: and al, 0x50 ; add rsp, 0x30 ; pop rdi ; ret ; (26 found)
0x7f2fd: and al, 0x50 ; add rsp, 0x40 ; pop rbp ; ret ; (1 found)
0x86815: and al, 0x50 ; add rsp, 0x40 ; pop rdi ; ret ; (11 found)
0x41ffb: and al, 0x50 ; add rsp, 0x40 ; pop rsi ; ret ; (1 found)
0x7e320: and al, 0x58 ; add rsp, 0x30 ; pop r14 ; ret ; (10 found)
0x7dd2d: and al, 0x58 ; add rsp, 0x30 ; pop rdi ; ret ; (6 found)
0x3cbcd: and al, 0x58 ; add rsp, 0x40 ; pop rbp ; ret ; (1 found)
0x1185: and al, 0x58 ; add rsp, 0x40 ; pop rdi ; ret ; (3 found)
0x75324: and al, 0x60 ; add rsp, 0x40 ; pop rdi ; ret ; (11 found)
0xf02a: and al, 0x60 ; add rsp, 0x50 ; pop rbp ; ret ; (1 found)
0x15215: and al, 0x60 ; add rsp, 0x50 ; pop rdi ; ret ; (1 found)
0xba66: and al, 0x60 ; add rsp, 0x58 ; ret ; (4 found)
0x3b9e: and al, 0x68 ; add rsp, 0x40 ; pop r14 ; ret ; (4 found)
0x10fb: and al, 0x68 ; add rsp, 0x40 ; pop r15 ; ret ; (6 found)
0xa8ed: and al, 0x68 ; add rsp, 0x40 ; pop rbp ; ret ; (1 found)
0x7acd5: and al, 0x68 ; add rsp, 0x40 ; pop rdi ; ret ; (5 found)
0x7f0c8: and al, 0x68 ; add rsp, 0x50 ; pop rbp ; ret ; (2 found)
0x40e19: and al, 0x68 ; add rsp, 0x50 ; pop rdi ; ret ; (1 found)
0x2afd6: and al, 0x70 ; add rsp, 0x50 ; pop rbp ; ret ; (2 found)
0x2c609: and al, 0x70 ; add rsp, 0x50 ; pop rdi ; ret ; (3 found)
0xc943: and al, 0x70 ; add rsp, 0x60 ; pop rdi ; ret ; (2 found)
0x8442d: and al, 0x78 ; add rsp, 0x50 ; pop r14 ; ret ; (2 found)
0x7e168: and al, 0x78 ; add rsp, 0x50 ; pop rdi ; ret ; (2 found)
0x75b05: and al, 0x78 ; add rsp, 0x60 ; pop rbp ; ret ; (2 found)
0x194d: and al, 0x78 ; add rsp, 0x60 ; pop rcx ; ret ; (1 found)
0x76dc7: and al, 0x78 ; add rsp, 0x60 ; pop rdi ; ret ; (2 found)
0x7f361: and al, 0x83 ; call qword [rbx] ; (1 found)
0x32e34: and al, 0x8B ; push rcx ; adc bh, dh ; retn 0xFFF8 ; (1 found)
0x7e993: and al, 0x98 ; add byte [rax], al ; add byte [rcx-0x75], cl ; retn 0x8B48 ; (1 found)
0x3f482: and al, 0xA8 ; add byte [rax], al ; add byte [rdi+rcx+0x44], cl ; retn 0x8B49 ; (1 found)
0x35998: and al, 0xBF ; add eax,  [rax] ; add rsp, 0x28 ; ret ; (1 found)
0x23652: and al, 0xC8 ; add byte [rax], al ; add byte [rcx-0x0A], al ; retn 0x7501 ; (1 found)
0xe76e: and al, 0xF6 ; ret ; (1 found)
0x8af95: and al, 0xFC ; jmp qword [rsi-0x77] ; (1 found)
0x204fd: and al, 0xFF ; jmp qword [rsi+0x03] ; (10 found)
0x3ca4b: and al, 0xFF ; ret ; (5 found)
0x2f875: and al, byte [rax] ; mov rbx, qword [rsp+0x08] ; mov rdi, qword [rsp+0x10] ; ret ; (1 found)
0x337bd: and al, byte [rbx] ; add byte [rbp+0x03], al ; rol  [rcx-0x75], 1 ; retn 0x0348 ; (1 found)
0x813a8: and al, ch ; add ch, byte [rsi-0x08] ; call qword [rax-0x00380017] ; (1 found)
0x8101d: and al, ch ; lea esi,  [rcx-0x08] ; call qword [rax-0x00383617] ; (1 found)
0xc1dd: and al, ch ; mov ebp, 0x48FFFF5B ; add esp, 0x48 ; ret ; (1 found)
0x755f5: and al, ch ; or eax, 0x48000000 ; add esp, 0x38 ; ret ; (2 found)
0x25573: and al, ch ; ret ; (1 found)
0x102f8: and al, ch ; retn 0x0001 ; (1 found)
0x2be4d: and al, ch ; test eax, 0x48FFFEA2 ; add esp, 0x58 ; ret ; (1 found)
0x17411: and al, dl ; mov cr2, rax ; ret ; (1 found)
0x2ca25: and bh, bh ; adc eax, 0x00044E94 ; add rsp, 0x48 ; ret ; (1 found)
0x75016: and bh, bh ; adc eax, 0xFFFFC8A3 ; add rsp, 0x38 ; ret ; (1 found)
0x3f943: and bh, bh ; ret ; (1 found)
0x24b04: and bh, bh ; ror byte [rax-0x75], 0x49 ; or byte [rbx], bh ; ret ; (1 found)
0x337dd: and byte [r8+0x0B], cl ; retn 0xB60F ; (1 found)
0x1c514: and byte [r9-0x75], al ; retn 0x8B44 ; (1 found)
0x1699a: and byte [rax+0x0B], cl ; retn 0x0025 ; (1 found)
0x81922: and byte [rax+0x0B], cl ; retn 0x00BA ; (2 found)
0x18e7c: and byte [rax+0x0B], cl ; retn 0x01A8 ; (2 found)
0x6683: and byte [rax+0x0B], cl ; retn 0x0349 ; (2 found)
0x7e752: and byte [rax+0x0B], cl ; retn 0x0588 ; (6 found)
0x18f18: and byte [rax+0x0B], cl ; retn 0x0D48 ; (2 found)
0x81955: and byte [rax+0x0B], cl ; retn 0x0F48 ; (2 found)
0x34698: and byte [rax+0x0B], cl ; retn 0x2548 ; (1 found)
0x42201: and byte [rax+0x0B], cl ; retn 0x2B4C ; (1 found)
0x5dc3: and byte [rax+0x0B], cl ; retn 0x3B4C ; (1 found)
0x67ec: and byte [rax+0x0B], cl ; retn 0x8348 ; (1 found)
0x344d2: and byte [rax+0x0B], cl ; retn 0x8548 ; (1 found)
0x20935: and byte [rax+0x0B], cl ; retn 0x8549 ; (2 found)
0x84904: and byte [rax+0x0B], cl ; retn 0x8948 ; (3 found)
0x6710: and byte [rax+0x0B], cl ; retn 0x8949 ; (12 found)
0x2c315: and byte [rax+0x0B], cl ; retn 0x894A ; (1 found)
0x1a3b6: and byte [rax+0x0B], cl ; retn 0x894B ; (2 found)
0x33e83: and byte [rax+0x0B], cl ; retn 0x8B41 ; (1 found)
0xd600: and byte [rax+0x0B], cl ; retn 0x8B48 ; (12 found)
0xa28b: and byte [rax+0x0B], cl ; retn 0x8B49 ; (1 found)
0x7f9eb: and byte [rax+0x0B], cl ; retn 0x8B4C ; (9 found)
0x33835: and byte [rax+0x0B], cl ; retn 0xA948 ; (2 found)
0x337de: and byte [rax+0x0B], cl ; retn 0xB60F ; (1 found)
0x8095a: and byte [rax+0x0B], cl ; retn 0xBA0F ; (2 found)
0x818f3: and byte [rax+0x0B], cl ; retn 0xBA48 ; (3 found)
0x1d914: and byte [rax+0x0B], cl ; retn 0xBDE9 ; (1 found)
0x33b72: and byte [rax+0x0B], cl ; retn 0xCB8B ; (1 found)
0x488e: and byte [rax+0x0B], cl ; retn 0xCCC3 ; (4 found)
0x307aa: and byte [rax+0x0B], cl ; retn 0xD974 ; (1 found)
0x1b234: and byte [rax+0x0B], cl ; retn 0xD9E9 ; (1 found)
0x7f25e: and byte [rax+0x0B], cl ; retn 0xE083 ; (1 found)
0xbe92: and byte [rax+0x0B], cl ; retn 0xEDEB ; (1 found)
0x34163: and byte [rax+0x0B], cl ; retn 0xFFBA ; (2 found)
0x36c98: and byte [rax+0x0B], cl ; ror byte [rax-0x75], 1 ; retn 0xC148 ; (1 found)
0x3e8d2: and byte [rax+0x23], cl ; retn 0xC148 ; (1 found)
0x3d6f3: and byte [rax+0x3B], cl ; retn 0x0F74 ; (1 found)
0x82ee1: and byte [rax+0x3B], cl ; retn 0x3C7E ; (1 found)
0x120bc: and byte [rax+rax], al ; add byte [rbp-0x75], cl ; retn 0x8D48 ; (1 found)
0x135b6: and byte [rax-0x01000000], 0x15 ; jmp rdx ; (1 found)
0x2ad68: and byte [rax-0x73], cl ; mov r8L, byte [0xC28B4D38244C8D4C] ; mov rax, qword [rax+0x18] ; call rax ; (1 found)
0x23e4d: and byte [rax-0x75], cl ; ret ; (2 found)
0x108ea: and byte [rax-0x75], cl ; retn 0x8B48 ; (1 found)
0x7a50e: and byte [rax-0x7D], cl ; retn 0x891F ; (1 found)
0x8b454: and byte [rax], al ; add byte [rax], al ; add rsp, 0x38 ; ret ; (1 found)
0xdbb6: and byte [rax], al ; add byte [rcx+0x0F20247C], cl ; fisttp qword [r13-0x74BBFCB2] ; ret ; (1 found)
0x77400: and byte [rax], al ; add byte [rdi+rcx-0x49], al ; retn 0x3B41 ; (1 found)
0x445ca: and byte [rax], al ; add rsp, 0x20 ; pop rbx ; ret ; (1 found)
0x8df76: and byte [rax], al ; mov  [rdx], 0x00000004 ; ret ; (1 found)
0x147df: and byte [rbp+0x06], dh ; add rsp, 0x20 ; pop rcx ; ret ; (1 found)
0x58a0: and byte [rbp+0x0B48FE71], cl ; retn 0x8B45 ; (1 found)
0x3b4b2: and byte [rbp-0x75], al ; ror byte [rax+0x0B], 1 ; retn 0x8B45 ; (1 found)
0x8fa2d: and byte [rbx-0x748FDBB4], cl ; ret ; (1 found)
0x1602a: and byte [rbx], dh ; dec  [rdx+0x3D3840D9] ; ret ; (1 found)
0x343f3: and byte [rcx+0x0F], cl ; stosd ; retn 0xFF41 ; (1 found)
0x3bce8: and byte [rcx+0x33], cl ; retn 0x2348 ; (1 found)
0x38215: and byte [rcx+0x3B], al ; retn 0x840F ; (1 found)
0x4909: and byte [rcx+0x40000111], bh ; wrmsr ; xor eax, eax ; ret ; (1 found)
0x2df2: and byte [rcx+0x5E], al ; pop r12 ; pop rdi ; ret ; (1 found)
0x77932: and byte [rcx+0x5E], al ; pop rdi ; pop rsi ; ret ; (13 found)
0x76349: and byte [rcx+0x5E], al ; ret ; (40 found)
0x7993e: and byte [rcx+0x5F], al ; pop r14 ; pop r12 ; ret ; (16 found)
0x12c2b: and byte [rcx+0x5F], al ; pop r14 ; pop r13 ; ret ; (2 found)
0x80823: and byte [rcx+0x5F], al ; pop r14 ; pop rdi ; ret ; (33 found)
0x77de4: and byte [rcx+0x5F], al ; ret ; (2 found)
0x2b153: and byte [rcx+rax-0x05], dh ; add rsp, 0x20 ; pop rcx ; ret ; (1 found)
0xa776: and byte [rcx-0x48], al ; add byte [rax+rax], al ; add byte [rax+0x0B], cl ; retn 0x8549 ; (1 found)
0x3ca38: and byte [rcx-0x73], al ; add qword [rax+0x0B], rcx ; retn 0x8949 ; (1 found)
0x337da: and byte [rcx-0x73], al ; and byte [r8+0x0B], cl ; retn 0xB60F ; (1 found)
0x34478: and byte [rcx-0x73], al ; dec qword [r8+0x0B] ; retn 0xF633 ; (1 found)
0x1c515: and byte [rcx-0x75], al ; retn 0x8B44 ; (1 found)
0x2ea7d: and byte [rcx], al ; add byte [rax], al ; ret ; (1 found)
0x148aa: and byte [rdi+0x5E], bl ; pop rbx ; ret ; (1 found)
0x84975: and byte [rdi+0x5E], bl ; pop rcx ; ret ; (1 found)
0xdbbc: and byte [rdi], cl ; fisttp qword [r13-0x74BBFCB2] ; ret ; (1 found)
0x8d8e7: and byte [rdi], cl ; xchg dh, dh ; ret ; (1 found)
0x31e33: and byte [rdi], cl ; xor byte [rax-0x75], cl ; ror  [rax-0x75], cl ; ret ; (1 found)
0x4499a: and cl, bh ; add al, byte [rax] ; add rsp, 0x28 ; ret ; (1 found)
0x21110: and cl, byte [r9+0x3B] ; retn 0x2C77 ; (1 found)
0x21111: and cl, byte [rcx+0x3B] ; retn 0x2C77 ; (1 found)
0x15442: and dh, byte [rbp+0x01] ; ret ; (1 found)
0x75015: and dil, dil ; adc eax, 0xFFFFC8A3 ; add rsp, 0x38 ; ret ; (1 found)
0x17414: and dl, al ; ret ; (1 found)
0x79491: and eax,  [rax] ; add al, al ; ret ; (2 found)
0x158e4: and eax, 0x00000005 ; add byte [rax], al ; xor eax, eax ; ret ; (1 found)
0x46c4: and eax, 0x00000018 ; mov al, byte [rax+0x000000D6] ; ret ; (1 found)
0x46e4: and eax, 0x00000018 ; mov byte [rax+0x000000D6], cl ; ret ; (1 found)
0x39f87: and eax, 0x000000ED ; add eax, 0xC0000002 ; ret ; (1 found)
0x181a9: and eax, 0x000001A4 ; imul eax,  [rcx+0x50] ; add rax, qword [rcx+0x48] ; ret ; (1 found)
0x166ed: and eax, 0x000001BA ; add byte [rdx], bh ; retn 0x1776 ; (1 found)
0x133a0: and eax, 0x000519EA ; add byte [rax-0x73], cl ; add eax, 0x000519E3 ; ret ; (1 found)
0x15305: and eax, 0x00052C1D ; cld ; ret ; (1 found)
0x782a9: and eax, 0x01 ; ret ; (1 found)
0x4b1e: and eax, 0x01 ; xor  [rdx+0x10], eax ; ret ; (1 found)
0x459a3: and eax, 0x03750002 ; xor eax, eax ; ret ; (1 found)
0x3647b: and eax, 0x0FFFFFFE ; mov bh, 0x97 ; retn 0x0001 ; (1 found)
0x45249: and eax, 0x48C00002 ; add esp, 0x20 ; pop rbx ; ret ; (1 found)
0x22786: and eax, 0x48C00002 ; add esp, 0x28 ; ret ; (1 found)
0x8ba69: and eax, 0x48C00002 ; add esp, 0x38 ; ret ; (1 found)
0x3fc99: and eax, 0x48C00002 ; mov ebx,  [rsp+0x08] ; mov rdi, qword [rsp+0x10] ; ret ; (1 found)
0x75587: and eax, 0x48FFFA1B ; add esp, 0x000000A0 ; pop rbp ; ret ; (1 found)
0xbd0d: and eax, 0xC000000D ; add rsp, 0x20 ; pop rdi ; ret ; (2 found)
0x8f0a2: and eax, 0xC000009A ; add rsp, 0x20 ; pop rbx ; ret ; (2 found)
0x8c607: and eax, 0xC000009A ; add rsp, 0x20 ; pop rdi ; ret ; (1 found)
0x8a1a: and eax, 0xC00000BB ; ret ; (1 found)
0x48680: and eax, 0xC0000141 ; add rsp, 0x30 ; pop r14 ; ret ; (1 found)
0x22785: and eax, 0xC0000225 ; add rsp, 0x28 ; ret ; (1 found)
0x20825: and eax, 0xC3C00002 ; mov  [0x0000000000067BE4], 0x0000000C ; mov eax, 0xC000000D ; ret ; (1 found)
0x4ac9: and eax, 0xFFFFFFD7 ; or eax, 0x02 ; mov  [rcx+0x10], eax ; ret ; (1 found)
0x32f51: and eax, 0xFFFFFFF7 ; out dx, eax ; add rsp, 0x38 ; ret ; (1 found)
0x3d65e: and eax, 0xFFFFFFFB ; mov qword [r8], rax ; add rsp, 0x38 ; ret ; (1 found)
0x3c08c: and eax, 0xFFFFFFFC ; add rax, 0x05 ; ret ; (1 found)
0x2d6d2: and eax, 0xFFFFFFFE ; or eax, 0x02 ; mov  [0x000000000006A0C4], eax ; ret ; (1 found)
0x2bdfe: and eax, eax ; ret ; (1 found)
0x8b106: and ebp,  [rax+rax] ; add bh, bh ; ret ; (1 found)
0x3a470: and ecx,  [rax-0x09] ; retn 0x0FFF ; (1 found)
0x12995: and ecx, 0x02 ; inc ecx ; mov  [rdx+0x78], ecx ; ret ; (1 found)
0x10e70: and ecx, eax ; mov eax, r9d ; ret ; (1 found)
0x759e9: and edi, edi ; inc  [rcx] ; add rsp, 0x48 ; ret ; (1 found)
0x20294: and edi, edi ; jmp qword [rsi-0x77] ; (2 found)
0x4aa9: and edx, 0x01 ; xor edx, eax ; mov  [rcx+0x10], edx ; ret ; (1 found)
0x810e9: and esi,  [rbx] ; stc ; dec  [rax-0x01] ; ret ; (1 found)
0x30627: and qword [0x0000000000065C90], 0x0000000000000000 ; mov byte [0x0000000000065C80], 0x00 ; add rsp, 0x28 ; ret ; (1 found)
0x2f873: and qword [r10], 0x0000000000000000 ; mov rbx, qword [rsp+0x08] ; mov rdi, qword [rsp+0x10] ; ret ; (1 found)
0x8df74: and qword [r8], 0x0000000000000000 ; mov  [rdx], 0x00000004 ; ret ; (1 found)
0x821b7: and qword [r8], rax ; add byte [rax-0x00224E17], dl ; jmp qword [rbp-0x75] ; (1 found)
0x445c7: and qword [rbx+0x20], 0x0000000000000000 ; add rsp, 0x20 ; pop rbx ; ret ; (1 found)
0x10e6f: and r9d, eax ; mov eax, r9d ; ret ; (1 found)
0x3d65d: and rax, 0xFFFFFFFFFFFFFFFB ; mov qword [r8], rax ; add rsp, 0x38 ; ret ; (1 found)
0x3c08b: and rax, 0xFFFFFFFFFFFFFFFC ; add rax, 0x05 ; ret ; (1 found)
0x2bdfd: and rax, r8 ; ret ; (1 found)
0x4a90: btr  [rcx+0x10], 0x09 ; ret ; (1 found)
0x4a80: btr  [rcx+0x10], 0x0A ; ret ; (1 found)
0x7b4b0: btr eax, 0x0E ; mov qword [rcx+0x18], rax ; lock or  [rsp+0x00], 0x00000000 ; ret ; (1 found)
0x7b4af: btr rax, 0x0E ; mov qword [rcx+0x18], rax ; lock or  [rsp+0x00], 0x00000000 ; ret ; (1 found)
0x4b00: bts  [rcx+0x10], 0x09 ; ret ; (1 found)
0x4af0: bts  [rcx+0x10], 0x0A ; ret ; (1 found)
0x83c00: bts eax, 0x0E ; mov qword [rcx+0x18], rax ; lock or  [rsp+0x00], 0x00000000 ; ret ; (1 found)
0xa39b: bts eax, 0x15 ; mov  [r8+r10+0x04], eax ; ret ; (1 found)
0x83bff: bts rax, 0x0E ; mov qword [rcx+0x18], rax ; lock or  [rsp+0x00], 0x00000000 ; ret ; (1 found)
0x12e3d: call qword [rax+0x05] ; (1 found)
0x796ce: call qword [rax-0x001A3317] ; (1 found)
0x79641: call qword [rax-0x001AEE17] ; (1 found)
0x7962a: call qword [rax-0x001B4D17] ; (1 found)
0x8e1e1: call qword [rax-0x001FD517] ; (1 found)
0x8e203: call qword [rax-0x001FE517] ; (1 found)
0x82263: call qword [rax-0x00218217] ; (1 found)
0x8221e: call qword [rax-0x00225F17] ; (1 found)
0x78aa5: call qword [rax-0x0027F817] ; (1 found)
0x8dec4: call qword [rax-0x0029FF17] ; (1 found)
0x8dedf: call qword [rax-0x002A0A17] ; (1 found)
0x786cf: call qword [rax-0x002FEA17] ; (1 found)
0x78719: call qword [rax-0x00303417] ; (1 found)
0x78542: call qword [rax-0x00303F17] ; (1 found)
0x785c3: call qword [rax-0x00304A17] ; (1 found)
0x78318: call qword [rax-0x00319C17] ; (1 found)
0x81ea2: call qword [rax-0x00327717] ; (2 found)
0x81f29: call qword [rax-0x0032BA17] ; (1 found)
0x82010: call qword [rax-0x00331A17] ; (1 found)
0x81a2e: call qword [rax-0x0033B617] ; (1 found)
0x819cf: call qword [rax-0x0033CB17] ; (1 found)
0x81a75: call qword [rax-0x0033E217] ; (1 found)
0x81e35: call qword [rax-0x00349617] ; (1 found)
0x818d6: call qword [rax-0x0034EC17] ; (1 found)
0x8163d: call qword [rax-0x0034F017] ; (1 found)
0x81508: call qword [rax-0x0035C717] ; (1 found)
0x813fe: call qword [rax-0x0037E117] ; (1 found)
0x813ec: call qword [rax-0x0037ED17] ; (1 found)
0x813ad: call qword [rax-0x00380017] ; (1 found)
0x81022: call qword [rax-0x00383617] ; (1 found)
0x8d9f6: call qword [rax-0x00385F17] ; (1 found)
0x8d9ae: call qword [rax-0x00388C17] ; (1 found)
0x81137: call qword [rax-0x0038E817] ; (1 found)
0x8124b: call qword [rax-0x00390317] ; (1 found)
0x811f6: call qword [rax-0x00396117] ; (1 found)
0x80fbf: call qword [rax-0x003ABE17] ; (1 found)
0x80fa6: call qword [rax-0x003AE817] ; (1 found)
0x80df7: call qword [rax-0x003CD517] ; (1 found)
0x80e97: call qword [rax-0x003D7517] ; (1 found)
0x80e50: call qword [rax-0x003DB417] ; (1 found)
0x80ef6: call qword [rax-0x003DD417] ; (1 found)
0x8d828: call qword [rax-0x003EDB17] ; (1 found)
0x8d27a: call qword [rax-0x0040A717] ; (1 found)
0x21dd8: call qword [rax-0x00B2E417] ; (1 found)
0x21db1: call qword [rax-0x00B2F817] ; (1 found)
0x21cb4: call qword [rax-0x00B60517] ; (1 found)
0x213b4: call qword [rax-0x00C90417] ; (1 found)
0x1fea9: call qword [rax-0x00EFFD17] ; (1 found)
0x20060: call qword [rax-0x00F02517] ; (1 found)
0x200f4: call qword [rax-0x00F09D17] ; (1 found)
0x1fb7a: call qword [rax-0x00F0CB17] ; (1 found)
0x1f7e9: call qword [rax-0x00F1E217] ; (1 found)
0x1e9ae: call qword [rax-0x0109A617] ; (1 found)
0x1e1ea: call qword [rax-0x010AB517] ; (1 found)
0x1e1d0: call qword [rax-0x010AC217] ; (1 found)
0x1e1c2: call qword [rax-0x010B6717] ; (1 found)
0x1e1a8: call qword [rax-0x010B7717] ; (1 found)
0x1dc90: call qword [rax-0x0114C417] ; (1 found)
0x1d94f: call qword [rax-0x011AD517] ; (1 found)
0x1bf11: call qword [rax-0x013E0E17] ; (1 found)
0x1b504: call qword [rax-0x01483017] ; (1 found)
0x1a01e: call qword [rax-0x01529517] ; (1 found)
0x1aa9b: call qword [rax-0x01536117] ; (1 found)
0x1a875: call qword [rax-0x0154BE17] ; (1 found)
0x1a2fd: call qword [rax-0x0154CE17] ; (1 found)
0x1a711: call qword [rax-0x01556B17] ; (1 found)
0x1a74d: call qword [rax-0x01559417] ; (1 found)
0x1a339: call qword [rax-0x01564817] ; (1 found)
0x209a8: call qword [rax-0x0160E817] ; (1 found)
0x19e17: call qword [rax-0x01611917] ; (1 found)
0x19a07: call qword [rax-0x01629317] ; (1 found)
0x19d0e: call qword [rax-0x0162EC17] ; (1 found)
0x19723: call qword [rax-0x01653717] ; (1 found)
0x197b0: call qword [rax-0x0165F017] ; (1 found)
0x7d102: call qword [rax] ; (5 found)
0x30875: call qword [rbx+0x03] ; (1 found)
0x27d45: call qword [rbx+0x1F0F0004] ; (1 found)
0x7f363: call qword [rbx] ; (1 found)
0x2e32d: call qword [rcx-0x00B7FFFD] ; (1 found)
0x1ea3d: call qword [rcx-0x3FCC0001] ; (1 found)
0x7f35e: call qword [rcx] ; (1 found)
0x46b06: call r11 ; (1 found)
0xc0b9: call rax ; (13 found)
0x46b07: call rbx ; (3 found)
0x1c27f: call rcx ; (1 found)
0x3553b: cdq ; retn 0x0003 ; (1 found)
0x19a04: clc ; adc al, 0xFF ; call qword [rax-0x01629317] ; (1 found)
0xae56: clc ; adc byte [rdi+rcx+0x44], al ; enter 0x8B41, 0xC1 ; ret ; (1 found)
0x77545: clc ; adc byte [rdx-0x1A], dh ; mov eax, 0xC0000225 ; ret ; (1 found)
0x124ef: clc ; add  [rbp+0x07], esi ; mov word [rax], dx ; ret ; (1 found)
0x10990: clc ; add  [rdi+0x04], esi ; or  [rdx+0x0C], 0x02 ; ret ; (1 found)
0x350e3: clc ; add al, 0x72 ; out 0xFF, eax ; ret ; (1 found)
0x786ce: clc ; call qword [rax-0x002FEA17] ; (1 found)
0x813eb: clc ; call qword [rax-0x0037ED17] ; (1 found)
0x813ac: clc ; call qword [rax-0x00380017] ; (1 found)
0x81021: clc ; call qword [rax-0x00383617] ; (1 found)
0x8d827: clc ; call qword [rax-0x003EDB17] ; (1 found)
0x88062: clc ; dec  [rax-0x77] ; push rax ; ret ; (1 found)
0x779eb: clc ; dec  [rax-0x7D] ; ret ; (1 found)
0x88502: clc ; jmp qword [rbp+0x48] ; (1 found)
0x8142e: clc ; jmp qword [rsi+0x0B] ; (1 found)
0x17c85: clc ; ret ; (1 found)
0x32e60: clc ; xor al, al ; ret ; (1 found)
0x3c08e: cld ; add rax, 0x05 ; ret ; (1 found)
0x819ce: cld ; call qword [rax-0x0033CB17] ; (1 found)
0x31b7b: cld ; cld ; jmp qword [rbp+0x48] ; (1 found)
0x31b7c: cld ; jmp qword [rbp+0x48] ; (1 found)
0x8af96: cld ; jmp qword [rsi-0x77] ; (3 found)
0x1296a: cld ; lea rax, qword [r8+0x19] ; lea rax, qword [rax+rcx*4] ; ret ; (2 found)
0x795a8: cld ; ret ; (2 found)
0x1c009: cld ; retn 0xFFFE ; (1 found)
0x1026d: cli ; add  [rdi+0x01], esi ; ret ; (1 found)
0x1c9d: cli ; add cl, byte [rax-0x75] ; retn 0xC148 ; (2 found)
0x8e202: cli ; call qword [rax-0x001FE517] ; (1 found)
0x8dec3: cli ; call qword [rax-0x0029FF17] ; (1 found)
0x8dede: cli ; call qword [rax-0x002A0A17] ; (1 found)
0x81ea1: cli ; call qword [rax-0x00327717] ; (1 found)
0x81507: cli ; call qword [rax-0x0035C717] ; (1 found)
0x9e15: cli ; or byte [rbp-0x74BB07BE], cl ; retn 0x0F44 ; (1 found)
0x4189: cli ; or ecx,  [rax-0x75] ; retn 0xC148 ; (1 found)
0x48255: cli ; push qword [rdx+rax-0x01] ; retn 0xC1FF ; (1 found)
0x7af64: cli ; sbb cl, byte [rax-0x75] ; retn 0xC148 ; (1 found)
0x8597: cmc ; retn 0x0005 ; (1 found)
0x30bfa: cmovb eax, ecx ; ret ; (1 found)
0x2edbe: cmovb ecx,  [rcx+0x11E11094] ; or  [rax], eax ; ret ; (1 found)
0xadd1: cmovb edx, eax ; mov eax, edx ; add rsp, 0x38 ; ret ; (1 found)
0xadd0: cmovb edx, r8d ; mov eax, edx ; add rsp, 0x38 ; ret ; (1 found)
0x30bf9: cmovb rax, rcx ; ret ; (1 found)
0x4a3de: cmovbe eax, eax ; mov rax, r8 ; ret ; (1 found)
0x4a38d: cmovbe ecx, eax ; mov rax, r9 ; ret ; (1 found)
0x4a3dd: cmovbe r8, rax ; mov rax, r8 ; ret ; (1 found)
0x4a38c: cmovbe r9, rax ; mov rax, r9 ; ret ; (1 found)
0x266cd: cmove eax, ecx ; mov al, r8L ; ret ; (1 found)
0xbd3a: cmove eax, ecx ; ret ; (3 found)
0x32e0a: cmove eax, edx ; ret ; (1 found)
0xae59: cmove ecx, eax ; mov eax, r9d ; ret ; (1 found)
0x266cc: cmove r8d, ecx ; mov al, r8L ; ret ; (1 found)
0xae58: cmove r9d, eax ; mov eax, r9d ; ret ; (1 found)
0x3c09b: cmove rax, rcx ; ret ; (1 found)
0x21bb0: cmovnbe edi, edi ; jmp qword [rsi+0x3B] ; (1 found)
0x2d218: cmovne eax, ecx ; ret ; (1 found)
0x8aa5b: cmovno edi,  [rbx] ; retn 0x0F41 ; (2 found)
0x24aff: cmovs eax,  [rbx-0x00DFCFB7] ; ror byte [rax-0x75], 0x49 ; or byte [rbx], bh ; ret ; (1 found)
0x27d3e: cmovs ecx,  [rbx+0x15FF48D3] ; call qword [rbx+0x1F0F0004] ; (1 found)
0x3ceeb: cmovs ecx,  [rbx+0x15FF48FA] ; retn 0x0341 ; (1 found)
0x42aac: cmovs ecx,  [rbx] ; enter 0x0F41, 0xB7 ; retn 0xC166 ; (1 found)
0x83f29: cmovs esi,  [rbx] ; retn 0x2348 ; (1 found)
0x2ff51: cmp  [0x0000000000065CE0], 0x00000000 ; setne al ; ret ; (1 found)
0x9cad: cmp  [0x0000000000066FA8], 0x00000000 ; setne al ; ret ; (1 found)
0x2d54d: cmp  [0x0000000000066FC8], 0x00000000 ; setne al ; ret ; (1 found)
0x85688: cmp  [rsp+rcx-0x01], esi ; ror byte [rax-0x7D], 0xC1 ; cmp byte [rbx], bh ; retn 0xF272 ; (1 found)
0x7d181: cmp al, 0x00 ; add byte [rbp-0x75], al ; retn 0x8341 ; (1 found)
0x12048: cmp al, 0x04 ; add byte [rax], al ; add rsp, 0x28 ; ret ; (1 found)
0x225bc: cmp al, 0x09 ; add byte [rax], al ; add rsp, 0x28 ; ret ; (1 found)
0x135b: cmp al, 0x2B ; retn 0x003D ; (4 found)
0x4126e: cmp al, 0x88 ; add rsp, 0x30 ; pop rdi ; ret ; (1 found)
0x816da: cmp al, 0x8B ; ret ; (1 found)
0xc04e: cmp al, 0xDC ; add rax, rcx ; mov qword [0x0000000000065C90], rax ; ret ; (1 found)
0x83bd4: cmp al, 0xF0 ; or  [rsp+0x00], r10d ; xor eax, eax ; ret ; (2 found)
0x88500: cmp al, 0xF7 ; clc ; jmp qword [rbp+0x48] ; (1 found)
0x81d97: cmp al, 0xFE ; jmp qword [rax] ; (1 found)
0x799e: cmp al, 0xFF ; ret ; (1 found)
0x7756c: cmp al, al ; add byte [rax], al ; add byte [rcx+0x0F], cl ; retn 0x8548 ; (1 found)
0x1dc03: cmp al, bpl ; mov al, byte [0xEB65832F458BFFFF] ; add byte [rbx-0x740010B3], al ; iretq ; (1 found)
0x1dc04: cmp al, ch ; mov al, byte [0xEB65832F458BFFFF] ; add byte [rbx-0x740010B3], al ; iretq ; (1 found)
0x48531: cmp al, cl ; setnbe al ; ret ; (1 found)
0x7b48b: cmp al, dh ; or  [rsp+0x00], r8d ; ret ; (1 found)
0x7b48a: cmp al, sil ; or  [rsp+0x00], r8d ; ret ; (1 found)
0x143a1: cmp bh, bh ; dec  [rax-0x75] ; fmul  [rax-0x75] ; ret ; (1 found)
0x8ba54: cmp bl, al ; std ; jmp qword [rsi+0x44] ; (1 found)
0x12a56: cmp bpl, r8L ; ret ; (1 found)
0x2029a: cmp bpl, r9L ; lodsd ; sbb edi, edi ; jmp qword [rsi+0x39] ; (1 found)
0x144a3: cmp byte [0x000000004807BBA9], al ; add esp, 0x20 ; pop rbx ; ret ; (1 found)
0x24596: cmp byte [r13+0x3B], r8L ; retn 0x0F45 ; (1 found)
0x88c21: cmp byte [r8-0x7D], r9L ; retn 0x442C ; (1 found)
0x462a8: cmp byte [rax+0x00000001], bh ; add rsp, 0x20 ; pop rdi ; ret ; (1 found)
0x83846: cmp byte [rax+0x48000000], 0x3B ; ret ; (1 found)
0x3ac06: cmp byte [rax-0x75], cl ; or byte [rbp-0x75], al ; ret ; (1 found)
0x76338: cmp byte [rax-0x75], cl ; ret ; (5 found)
0x14cc7: cmp byte [rax-0x75], cl ; retn 0x8949 ; (1 found)
0x88c22: cmp byte [rax-0x7D], cl ; retn 0x442C ; (1 found)
0x46005: cmp byte [rax-0x7D], cl ; retn 0x4806 ; (1 found)
0x7da63: cmp byte [rax], al ; add bh, bh ; ret ; (1 found)
0x8a19a: cmp byte [rax], al ; add byte [rax-0x7D], cl ; ret ; (1 found)
0x7da62: cmp byte [rax], r8L ; add bh, bh ; ret ; (1 found)
0x24597: cmp byte [rbp+0x3B], al ; retn 0x0F45 ; (1 found)
0x1a2f5: cmp byte [rbp-0x4D17FBB6], cl ; fdivp st6, st0 ; call qword [rax-0x0154CE17] ; (1 found)
0x2ad71: cmp byte [rbp-0x75], cl ; retn 0x8B48 ; (1 found)
0x85690: cmp byte [rbx], bh ; retn 0xF272 ; (1 found)
0x7b484: cmp byte [rcx+0x0B], al ; ror  [rcx+0x44F03842], 0x09 ; add al, 0x24 ; ret ; (2 found)
0x85532: cmp byte [rcx+0x5F], al ; pop r14 ; pop r12 ; ret ; (2 found)
0x7948c: cmp byte [rcx+rcx*4+0x00], al ; mov eax, 0xC0000023 ; ret ; (1 found)
0x1937: cmp byte [rcx-0x75], cl ; retn 0x8B48 ; (1 found)
0x35952: cmp byte [rcx], al ; add byte [rax], al ; add byte [rax-0x75], cl ; retn 0x44C6 ; (1 found)
0x1217e: cmp byte [rdi], cl ; xchg eax, edx ; ret ; (2 found)
0x12a57: cmp ch, al ; ret ; (1 found)
0x2029b: cmp ch, cl ; lodsd ; sbb edi, edi ; jmp qword [rsi+0x39] ; (1 found)
0x3534: cmp cl, byte [rax-0x75] ; retn 0x8348 ; (1 found)
0x225f2: cmp cl, byte [rdx] ; add byte [rax], al ; add rsp, 0x28 ; ret ; (1 found)
0x89247: cmp eax,  [rdi+rcx-0x4A] ; retn 0x034C ; (1 found)
0x21108: cmp eax, 0x000001BB ; add byte [rax-0x73], cl ; and cl, byte [r9+0x3B] ; retn 0x2C77 ; (1 found)
0x36cf6: cmp eax, 0x0002EC88 ; add  [rbp+0x03], esi ; xor al, al ; ret ; (1 found)
0xae55: cmp eax, 0x10 ; cmove r9d, eax ; mov eax, r9d ; ret ; (1 found)
0x2ef83: cmp eax, 0x48FFFE55 ; add esp, 0x38 ; ret ; (1 found)
0x1424f: cmp eax, 0x83480005 ; retn 0x4DE8 ; (2 found)
0x89ab9: cmp eax, 0x8B4C0000 ; ret ; (1 found)
0x215c4: cmp eax, 0xB70FFFFF ; retn 0x8D48 ; (3 found)
0x385c7: cmp eax, 0xFF0002EB ; adc eax, 0x000392EF ; add rsp, 0x28 ; ret ; (1 found)
0x30bf7: cmp eax, ecx ; cmovb rax, rcx ; ret ; (1 found)
0x173af: cmp eax, ecx ; sbb eax, eax ; sbb eax, 0xFFFFFFFF ; ret ; (1 found)
0x2bdf8: cmp eax, ecx ; sbb rax, rax ; and rax, r8 ; ret ; (1 found)
0x8ffe2: cmp eax, ecx ; setnbe al ; ret ; (3 found)
0x2219d: cmp ebx, eax ; sete r9L ; mov eax, r9d ; ret ; (1 found)
0x3fffa: cmp ecx,  [rax-0x77] ; sbb byte [rax-0x75], cl ; ret ; (1 found)
0x7fc9: cmp ecx,  [rcx-0x7CB7F795] ; ret ; (1 found)
0x78161: cmp edx,  [rbx+rdi*8-0x01] ; mov qword [rcx+0x30], rax ; mov eax, edx ; ret ; (1 found)
0x4a3db: cmp edx, ecx ; cmovbe r8, rax ; mov rax, r8 ; ret ; (1 found)
0xbd38: cmp edx, ecx ; cmove eax, ecx ; ret ; (2 found)
0x4a38a: cmp edx, edx ; cmovbe r9, rax ; mov rax, r9 ; ret ; (1 found)
0x21032: cmp esi,  [rdi+rdi*8] ; dec  [rax-0x75] ; ret ; (1 found)
0x30c23: cmp esp, 0x48000000 ; mov  [rcx+0x00000108], eax ; ret ; (1 found)
0x2ff50: cmp qword [0x0000000000065CE0], 0x0000000000000000 ; setne al ; ret ; (1 found)
0x9cac: cmp qword [0x0000000000066FA8], 0x0000000000000000 ; setne al ; ret ; (1 found)
0x2d54c: cmp qword [0x0000000000066FC8], 0x0000000000000000 ; setne al ; ret ; (1 found)
0x2219c: cmp r11d, r8d ; sete r9L ; mov eax, r9d ; ret ; (1 found)
0x2bdf7: cmp r8, rcx ; sbb rax, rax ; and rax, r8 ; ret ; (1 found)
0x8ffe1: cmp r8, rcx ; setnbe al ; ret ; (2 found)
0x48530: cmp r8L, cl ; setnbe al ; ret ; (1 found)
0xae54: cmp r8d, 0x10 ; cmove r9d, eax ; mov eax, r9d ; ret ; (1 found)
0x90046: cmp r8d, ecx ; setnbe al ; ret ; (1 found)
0x90045: cmp r8w, cx ; setnbe al ; ret ; (1 found)
0x30bf6: cmp rax, rcx ; cmovb rax, rcx ; ret ; (1 found)
0x173ae: cmp rax, rcx ; sbb eax, eax ; sbb eax, 0xFFFFFFFF ; ret ; (1 found)
0x4a389: cmp rdx, r10 ; cmovbe r9, rax ; mov rax, r9 ; ret ; (1 found)
0x4a3da: cmp rdx, r9 ; cmovbe r8, rax ; mov rax, r8 ; ret ; (1 found)
0x7dfad: cmpsq ; or eax, 0x83480000 ; ret ; (1 found)
0x7e994: cwde ; add byte [rax], al ; add byte [rcx-0x75], cl ; retn 0x8B48 ; (1 found)
0x40ab9: cwde ; add byte [rax], al ; add rsp, 0x28 ; ret ; (1 found)
0x95f1: cwde ; add byte [rcx-0x75], cl ; ret ; (1 found)
0x1b748: cwde ; retn 0xFFFE ; (1 found)
0x86720: dec  [0x0000000000064A60] ; xor eax, eax ; add rsp, 0x28 ; ret ; (1 found)
0x12c85: dec  [0x0000000000065A78] ; mov al, r8L ; add rsp, 0x38 ; ret ; (1 found)
0x7a1c4: dec  [0x000000000006A060] ; xor eax, eax ; ret ; (1 found)
0x29fcf: dec  [r8-0x7B] ; ret ; (1 found)
0x3447c: dec  [rax+0x0B] ; retn 0xF633 ; (1 found)
0x35adf: dec  [rax+0x0B] ; ror byte [rax-0x75], 1 ; retn 0xC148 ; (1 found)
0x3bb79: dec  [rax+0x23] ; ret ; (1 found)
0x3416b: dec  [rax+0x23] ; retn 0x8B48 ; (2 found)
0x3e674: dec  [rax+0x23] ; retn 0xC148 ; (1 found)
0x2f6ab: dec  [rax+0x2B] ; ret ; (1 found)
0x1d8e4: dec  [rax+0x33] ; retn 0x8FE9 ; (1 found)
0x1d8f5: dec  [rax+0x33] ; retn 0xF6E9 ; (1 found)
0x810ec: dec  [rax-0x01] ; ret ; (2 found)
0x2c8ad: dec  [rax-0x01] ; retn 0x4466 ; (1 found)
0x88076: dec  [rax-0x73] ; or eax, 0xFFFF6442 ; mov qword [rax+0x00000130], rcx ; ret ; (1 found)
0x15b9a: dec  [rax-0x74CDDBBC] ; and al, 0x30 ; add rsp, 0x28 ; ret ; (2 found)
0x88e81: dec  [rax-0x75] ; adc r8L, r13L ; mov ebx, 0x8BFFF8E1 ; ret ; (1 found)
0x2312d: dec  [rax-0x75] ; and al, 0x60 ; add rsp, 0x58 ; ret ; (1 found)
0x143a3: dec  [rax-0x75] ; fmul  [rax-0x75] ; ret ; (1 found)
0x8383f: dec  [rax-0x75] ; or byte [r8-0x75], r9L ; cmp byte [rax+0x48000000], 0x3B ; ret ; (1 found)
0x3a0ec: dec  [rax-0x75] ; pop rbp ; xor byte [rax-0x01], cl ; ret ; (1 found)
0x8f693: dec  [rax-0x75] ; pop rsp ; and al, 0x08 ; ret ; (2 found)
0x768f3: dec  [rax-0x75] ; ret ; (7 found)
0x113f: dec  [rax-0x75] ; sbb ecx,  [rax-0x75] ; ret ; (1 found)
0x88d82: dec  [rax-0x75] ; sbb r8L, r13L ; mov edx, 0x8BFFF8E2 ; ret ; (1 found)
0x313ad: dec  [rax-0x77] ; add eax, 0x00034A3B ; add rsp, 0x38 ; ret ; (1 found)
0x8c415: dec  [rax-0x77] ; add eax, 0xFFFD864B ; ret ; (1 found)
0x8c40e: dec  [rax-0x77] ; add eax, 0xFFFD865A ; mov qword [0x0000000000064A68], rax ; ret ; (1 found)
0x88058: dec  [rax-0x77] ; lea rcx, qword [0x0000000000016DE0] ; mov qword [rax+0x50], rcx ; ret ; (1 found)
0x8a135: dec  [rax-0x77] ; mov byte [rax+0x48000000], bl ; add esp, 0x28 ; ret ; (1 found)
0x88063: dec  [rax-0x77] ; push rax ; ret ; (1 found)
0xef7d: dec  [rax-0x77] ; ror byte [r9-0x76BBF783], 0x75 ; sbb al, 0xE8 ; retn 0x0009 ; (1 found)
0x29fd0: dec  [rax-0x7B] ; ret ; (1 found)
0x884bd: dec  [rax-0x7B] ; ror byte [rdi], 0x84 ; ret ; (1 found)
0x78458: dec  [rax-0x7B] ; sal byte [rbp+0x04], 0x8B ; retn 0x06EB ; (4 found)
0x16f09: dec  [rax-0x7B] ; sal byte [rdi+rax-0x50], 0x01 ; add rsp, 0x28 ; ret ; (1 found)
0x779ec: dec  [rax-0x7D] ; ret ; (4 found)
0x1d3eb: dec  [rax-0x7D] ; retn 0x8B08 ; (1 found)
0x3bd09: dec  [rbp+0x33] ; retn 0x234C ; (1 found)
0x4275d: dec  [rbp+0x3B66F45E] ; ret ; (2 found)
0x88c1e: dec  [rbp+rcx*4+0x47] ; cmp byte [rax-0x7D], cl ; retn 0x442C ; (1 found)
0x2ace1: dec  [rbp-0x7B] ; div byte [rax+rcx-0x75] ; ret ; (1 found)
0x1e69b: dec  [rbx+0x0000B887] ; add byte [rax+0x79850F20], ch ; idiv dh ; jmp qword [rbp-0x75] ; (1 found)
0x1d9b7: dec  [rbx+0x0000DC8B] ; add byte [rcx-0x75], cl ; ret ; (1 found)
0x8e9ed: dec  [rbx+0x0001E883] ; add byte [rcx+0x3B], al ; ret ; (1 found)
0x1c024: dec  [rbx+0x0D3B404D] ; retn 0x04BC ; (1 found)
0x1dd01: dec  [rbx+0x0D] ; fistp  [rsi-0x74B3FFFC] ; ret ; (1 found)
0x1c089: dec  [rbx+0x0D] ; push rbx ; mov ebx, 0x8B4C0004 ; ret ; (1 found)
0x1b769: dec  [rbx-0x311748B3] ; retn 0xFFFE ; (1 found)
0x7e89: dec  [rbx-0x3B7CB73D] ; pop rbx ; ret ; (2 found)
0x46083: dec  [rbx-0x687487A1] ; add byte [rax], 0x00 ; add bh, bh ; retn 0x47C7 ; (1 found)
0x3b0a7: dec  [rcx+0x0F] ; ret ; (1 found)
0x7a5bc: dec  [rcx+0x48C0330B] ; add esp, 0x20 ; pop rbx ; ret ; (1 found)
0x1748: dec  [rcx+rcx*4+0x16] ; add rsp, 0x20 ; pop rsi ; ret ; (1 found)
0x88670: dec  [rcx+rcx*4+0x25] ; sbb dh, ch ; std ; jmp qword [rsi-0x39] ; (1 found)
0x2f76f: dec  [rcx-0x75] ; test byte [rax+0x0F], 0x46 ; ret ; (1 found)
0x7843c: dec  [rcx-0x7AB764B3] ; sal byte [rbp+0x04], 0x8B ; retn 0x06EB ; (1 found)
0x8df73: dec  [rcx-0x7D] ; and byte [rax], al ; mov  [rdx], 0x00000004 ; ret ; (1 found)
0x7bb47: dec  [rcx-0x7D] ; ret ; (1 found)
0x3c751: dec  [rdi] ; add byte [rax+0x33], cl ; ret ; (1 found)
0x17165: dec  [rdi] ; add byte [rax], al ; add byte [rax+0x23], cl ; retn 0xBA48 ; (1 found)
0x3635e: dec  [rdi] ; add byte [rax], al ; mov  [r8+0x08], ecx ; ret ; (1 found)
0x3aff3: dec  [rdi] ; add byte [rbx+0x234C07E0], al ; retn 0xC148 ; (1 found)
0x3fd54: dec  [rdi] ; add byte [rcx+0x23], cl ; retn 0x8348 ; (1 found)
0x3647e: dec  [rdi] ; mov bh, 0x97 ; retn 0x0001 ; (1 found)
0x1602c: dec  [rdx+0x3D3840D9] ; ret ; (1 found)
0x58a3: dec byte [rax+0x0B] ; retn 0x8B45 ; (1 found)
0x3457c: dec byte [rax-0x75] ; retn 0xC148 ; (1 found)
0x9c78: dec byte [rdi] ; retn 0xB70F ; (1 found)
0x3447b: dec qword [r8+0x0B] ; retn 0xF633 ; (1 found)
0x43fcb: div  [rax+0x5C8B4801] ; and al, 0x08 ; mov rdi, qword [rsp+0x10] ; ret ; (1 found)
0x2ace4: div byte [rax+rcx-0x75] ; ret ; (1 found)
0x3480f: div byte [rsp+rax-0x75] ; add ecx,  [rcx+0x0D8D4806] ; ret ; (1 found)
0x3cfc2: div dh ; ret ; (1 found)
0x42228: div ecx ; imul rax, r8 ; ret ; (1 found)
0x4221d: div ecx ; imul rax, rcx ; ret ; (1 found)
0x42230: div ecx ; ret ; (1 found)
0xbda5: div edx ; add rax, rcx ; ret ; (1 found)
0xbda4: div r10 ; add rax, rcx ; ret ; (1 found)
0x42227: div r9 ; imul rax, r8 ; ret ; (1 found)
0x4221c: div r9 ; imul rax, rcx ; ret ; (1 found)
0x4222f: div r9 ; ret ; (1 found)
0x1487d: enter 0x0000, 0x33 ; ror byte [rax-0x75], 0x5C ; and al, 0x08 ; ret ; (1 found)
0x884e: enter 0x013B, 0x00 ; add rsp, 0x28 ; ret ; (1 found)
0x17ae9: enter 0x0188, 0x75 ; mov rax, r11 ; ret ; (1 found)
0x47323: enter 0x01A8, 0x75 ; or al, 0xFF ; retn 0xE8D1 ; (1 found)
0x2efb5: enter 0x0277, 0xB0 ; add  [rax-0x3C3FCCFE], ecx ; mov eax, 0xC0000001 ; ret ; (1 found)
0x90071: enter 0x04B8, 0x00 ; add al, al ; mov  [r8], r9d ; ret ; (1 found)
0x20d2d: enter 0x0674, 0xB8 ; add byte [rax], dl ; add byte [rax], al ; ret ; (1 found)
0x13734: enter 0x077F, 0x32 ; ror byte [rax-0x7D], 0xC4 ; ret ; (1 found)
0x8f682: enter 0x0974, 0x83 ; retn 0x75FF ; (1 found)
0x82b6e: enter 0x0B66, 0xC8 ; mov word [r9+0x06], cx ; ret ; (1 found)
0x42bb6: enter 0x0F41, 0xB7 ; retn 0xC148 ; (1 found)
0x42aaf: enter 0x0F41, 0xB7 ; retn 0xC166 ; (1 found)
0xbd91: enter 0x0F49, 0xAF ; retn 0x0F49 ; (1 found)
0x3af29: enter 0x3348, 0xCA ; mov qword [rax], rcx ; mov al, 0x01 ; ret ; (1 found)
0x884fe: enter 0x3CE8, 0xF7 ; clc ; jmp qword [rbp+0x48] ; (1 found)
0x177a5: enter 0x4266, 0x89 ; add al, 0x09 ; mov eax, 0x00000002 ; ret ; (1 found)
0x8f5a2: enter 0x8348, 0xC0 ; add cl, byte [rcx+0x3B] ; retn 0xD176 ; (1 found)
0x82b3d: enter 0x8841, 0x09 ; ret ; (1 found)
0x17784: enter 0x8842, 0x04 ; or  [rax+0x00000001], edi ; ret ; (1 found)
0x46643: enter 0x8901, 0x02 ; ret ; (2 found)
0x2d6d6: enter 0x8902, 0x05 ; out 0xC9, al ; add eax,  [rax] ; ret ; (1 found)
0x41c31: enter 0x8904, 0x41 ; or al, dh ; or  [rsp+0x00], 0x00000000 ; ret ; (1 found)
0x177c4: enter 0x8942, 0x04 ; or  [rax+0x00000004], edi ; ret ; (1 found)
0x439a: enter 0x8944, 0x5A ; add al, 0xEB ; retn 0x8944 ; (1 found)
0x17722: enter 0x8A42, 0x04 ; or  [rax+0x0001B802], ecx ; add byte [rax], al ; ret ; (1 found)
0xae5a: enter 0x8B41, 0xC1 ; ret ; (3 found)
0x17762: enter 0x8B42, 0x04 ; or  [rcx+0x0004B802], ecx ; add byte [rax], al ; ret ; (1 found)
0x8cd56: enter 0x8B48, 0x05 ; retn 0xFD7F ; (1 found)
0x3db8c: enter 0x8B48, 0x5C ; and al, 0x08 ; mov rax, r8 ; ret ; (2 found)
0xbda0: enter 0x8B49, 0xC1 ; div r10 ; add rax, rcx ; ret ; (1 found)
0x4a38e: enter 0x8B49, 0xC1 ; ret ; (2 found)
0x3933f: enter 0x8D44, 0x42 ; push 0xFDE8F7E8 ; jmp qword [rcx] ; (1 found)
0x3afa8: enter 0x8D48, 0x42 ; add  [rcx-0x77], ecx ; or cl, byte [rcx-0x7D] ; retn 0x8408 ; (1 found)
0x40ab6: enter 0x98E8, 0x98 ; add byte [rax], al ; add rsp, 0x28 ; ret ; (1 found)
0x31b78: enter 0xAEE8, 0xFC ; cld ; jmp qword [rbp+0x48] ; (1 found)
0x1645a: enter 0xC18B, 0x48 ; add esp, 0x28 ; ret ; (1 found)
0x44da7: enter 0xC18B, 0x48 ; add esp, 0x48 ; ret ; (1 found)
0x11315: enter 0xD023, 0xE8 ; ret ; (1 found)
0x464fa: enter 0xD133, 0x41 ; or edx, eax ; mov  [r9+0x10], edx ; ret ; (2 found)
0x1732c: enter 0xF175, 0x48 ; xor eax, eax ; ret ; (1 found)
0x2b378: enter 0xFFF0, 0x0D ; insb ; ret ; (1 found)
0x2b483: enter 0xFFF0, 0x0D ; insd ; retn 0x0003 ; (1 found)
0x7501a: enter 0xFFFF, 0x48 ; add esp, 0x38 ; ret ; (1 found)
0x7f518: fadd  [rbp-0x173B8740] ; retn 0xF8B8 ; (1 found)
0x7f3d3: fadd  [rbp-0x17708740] ; ret ; (1 found)
0x80e2d: fadd  [rbp-0x6077F040] ; retn 0xFFFF ; (1 found)
0x8d73d: fadd  [rbp-0x6C7BF040] ; retn 0xFFFF ; (1 found)
0x2219e: fadd  [rcx+0x0F] ; xchg eax, esp ; rol  [rcx-0x75], 0xFFFFFFC1 ; ret ; (1 found)
0x82804: fadd  [rcx] ; paddb xmm1, xmm0 ; movd eax, xmm1 ; ret ; (1 found)
0x3c884: fbstp  [rbp-0x74] ; mov rbx, qword [rsp+0x08] ; mov rdi, qword [rsp+0x10] ; ret ; (1 found)
0x8a15: fcomp  [rbx] ; sal bh, 0xD0 ; and eax, 0xC00000BB ; ret ; (1 found)
0x16978: fcomp  [rdx] ; sal byte [rbx], cl ; jmp qword [rdx] ; (1 found)
0x7fe7d: fcos ; ret ; (1 found)
0x2f7ee: fdiv  [r11] ; ror byte [rcx-0x75], cl ; ret ; (1 found)
0x2f7ef: fdiv  [rbx] ; ror byte [rcx-0x75], cl ; ret ; (1 found)
0x253f4: fdiv  [rbx] ; test byte [rax-0x01], 0x15 ; retn 0x04BC ; (1 found)
0x3d796: fdiv st0, st6 ; retn 0x0F10 ; (1 found)
0x1a2fb: fdivp st6, st0 ; call qword [rax-0x0154CE17] ; (1 found)
0x151f: fdivp st7, st0 ; ret ; (2 found)
0x78488: fdivr st0, st6 ; dec  [rax-0x7B] ; sal byte [rbp+0x04], 0x8B ; retn 0x06EB ; (1 found)
0x8def1: fdivr st0, st7 ; jmp qword [rsi+0x09] ; (1 found)
0x8defa: fdivr st0, st7 ; jmp qword [rsi+0x44] ; (1 found)
0x17336: fdivr st0, st7 ; ret ; (2 found)
0x8e1de: fdivrp st4, st0 ; stc ; call qword [rax-0x001FD517] ; (1 found)
0x3ae96: fiadd  [rbp+0x3B] ; ret ; (1 found)
0x11376: fiadd  [rbp+0x3B] ; retn 0x830F ; (1 found)
0x123f8: fiadd  [rcx+0x0F] ; xchg eax, edx ; retn 0x3B66 ; (1 found)
0x469bb: fiadd  [rcx-0x75] ; retn 0x20B9 ; (1 found)
0x77566: fild  [rcx-0x75] ; ret ; (2 found)
0x27ce1: fild word [rax+rax] ; add bh, bh ; ret ; (1 found)
0x2c077: fild word [rbx] ; add byte [rax-0x3FFFFFFF], bh ; ret ; (1 found)
0x2a70d: fild word [rbx] ; add byte [rax], al ; add rsp, 0x28 ; ret ; (1 found)
0x1ab4e: fimul  [rax+0x23] ; ror byte [rax-0x75], 1 ; retn 0xC148 ; (4 found)
0x349b4: fimul  [rax-0x75] ; retn 0xC148 ; (2 found)
0x3409d: fimul  [rcx+0x23] ; ror byte [rax-0x75], 1 ; retn 0xC148 ; (1 found)
0x864c5: fimul word [rax-0x75] ; ret ; (2 found)
0x3dd01: fimul word [rax-0x7D] ; retn 0x4C16 ; (1 found)
0x7baf5: fist word [rcx+0x15FFFFFE] ; rcr  [rbp-0x01], 0xFFFFFFFF ; add rsp, 0x00000000000000B8 ; ret ; (1 found)
0x1dd05: fistp  [rsi-0x74B3FFFC] ; ret ; (1 found)
0x2d3bd: fistp qword [rax-0x3FFFFFFF] ; add rsp, 0x28 ; ret ; (1 found)
0x37fdd: fistp word [rax-0x3FCCFFFD] ; add rsp, 0x38 ; ret ; (1 found)
0x3afb5: fisttp  [rax+0x0F] ; retn 0x8B48 ; (1 found)
0x42068: fisttp  [rax-0x007F] ; ret ; (1 found)
0x25f5a: fisttp  [rax-0x75] ; add cl, byte [rax+0x3B] ; retn 0x1774 ; (1 found)
0x4352b: fisttp  [rax-0x75] ; ret ; (1 found)
0x5d9d: fisttp  [rbx+rcx*4+0x1D] ; ret ; (1 found)
0x1db7b: fisttp  [rbx-0x72B7A3BD] ; iretq ; (1 found)
0x27faf: fisttp  [rcx-0x75] ; ret ; (1 found)
0xdbbe: fisttp qword [r13-0x74BBFCB2] ; ret ; (1 found)
0xdbbf: fisttp qword [rbp-0x74BBFCB2] ; ret ; (1 found)
0x57d7: fisttp word [rax+0x69] ; ret ; (1 found)
0x341d4: fisttp word [rcx-0x75] ; ror byte [rcx-0x75], cl ; retn 0xC148 ; (2 found)
0x2c7b6: fld  [rbx] ; add byte [rdi], cl ; xchg eax, ebp ; ret ; (1 found)
0x8eaef: fld  [rcx+0x02] ; add cl, byte [rcx-0x01] ; retn 0x8349 ; (1 found)
0xb623: fld  [rcx+0x2B] ; ret ; (1 found)
0x796cb: fld st0, st2 ; sti ; call qword [rax-0x001A3317] ; (1 found)
0xee05: fldpi ; retn 0xC033 ; (1 found)
0x25f48: fmul  [rax+0x1B] ; rol byte [rbx-0x7EB7EF1E], cl ; retn 0x0098 ; (1 found)
0x8cbf4: fmul  [rax-0x73] ; add r9L, byte [r9+0x3B] ; ret ; (1 found)
0x143a6: fmul  [rax-0x75] ; ret ; (1 found)
0x3af8c: fmul  [rax-0x75] ; retn 0x1B48 ; (1 found)
0x43e1d: fmul  [rax-0x75] ; retn 0x8B48 ; (1 found)
0x76c64: fmul  [rbp-0x75] ; add byte [rcx-0x007F], cl ; ret ; (2 found)
0x1587a: fmul  [rdi] ; ret ; (1 found)
0x7846f: fsin ; dec  [rax-0x7B] ; sal byte [rbp+0x04], 0x8B ; retn 0x06EB ; (2 found)
0x7843a: fsin ; dec  [rcx-0x7AB764B3] ; sal byte [rbp+0x04], 0x8B ; retn 0x06EB ; (1 found)
0x88d7d: fsubr st0, st0 ; ret ; (1 found)
0x788f7: fsubr st0, st1 ; retn 0xFFD6 ; (1 found)
0x43fa5: fsubr st0, st3 ; or byte [rax+0x2B], cl ; ret ; (1 found)
0x3f941: fucomi st0, st3 ; and bh, bh ; ret ; (1 found)
0x5451: hlt ; add eax, 0x75C98400 ; add eax, 0x28C48348 ; ret ; (1 found)
0x1d94c: hlt ; in eax, 0xFE ; call qword [rax-0x011AD517] ; (1 found)
0x173fe: hlt ; ret ; (1 found)
0x8e1df: hlt ; stc ; call qword [rax-0x001FD517] ; (1 found)
0x2c8b7: idiv bh ; retn 0x3C8D ; (1 found)
0x1e6a7: idiv dh ; jmp qword [rbp-0x75] ; (1 found)
0x88501: idiv eax ; jmp qword [rbp+0x48] ; (1 found)
0x8ec0c: idiv edi ; add rsp, 0x20 ; pop rbx ; ret ; (1 found)
0x113d: idiv edi ; dec  [rax-0x75] ; sbb ecx,  [rax-0x75] ; ret ; (1 found)
0x1e9f7: idiv esi ; dec  [rax-0x7D] ; ret ; (1 found)
0x77ea3: imul  [rbx] ; ret ; (1 found)
0x23f09: imul byte [rbx] ; ret ; (1 found)
0x39345: imul eax ; std ; jmp qword [rcx] ; (1 found)
0x10d24: imul eax,  [0xFFFFFFFFD03C552E], 0x8B481374 ; retn 0x8B48 ; (1 found)
0x215ed: imul eax,  [rax+rax], 0x04894466 ; or cl, ch ; or bh, byte [0xFFFFFFFFB71215FB] ; retn 0x8D48 ; (1 found)
0xc9ea: imul eax,  [rbx+0x587404E9], 0x83 ; stc ; add esi,  [rdx+rsi-0x75] ; ret ; (1 found)
0x181ae: imul eax,  [rcx+0x50] ; add rax, qword [rcx+0x48] ; ret ; (1 found)
0x181d: imul eax,  [rcx], 0x418B4800 ; ret ; (1 found)
0x4222b: imul eax, eax ; ret ; (1 found)
0x156d2: imul eax, eax, 0x000000B0 ; add rax, qword [0x0000000000067DD0] ; add rsp, 0x28 ; ret ; (1 found)
0x42220: imul eax, ecx ; ret ; (1 found)
0x1443e: imul ecx,  [rax-0x007F], 0xFFF000E3 ; dec  [rax-0x75] ; ret ; (1 found)
0x88c1b: imul ecx, esp, 0x8D4CFFFD ; cmp byte [r8-0x7D], r9L ; retn 0x442C ; (1 found)
0x32f53: imul edi ; add rsp, 0x38 ; ret ; (1 found)
0x1106d: imul esp,  [rax], 0x49 ; mov esp, ebx ; pop rbp ; ret ; (1 found)
0x4222a: imul rax, r8 ; ret ; (1 found)
0x156d1: imul rax, rax, 0x000000B0 ; add rax, qword [0x0000000000067DD0] ; add rsp, 0x28 ; ret ; (1 found)
0x4221f: imul rax, rcx ; ret ; (1 found)
0x96f9: in al, 0x05 ; add byte [rax+0x3B], cl ; retn 0x2C74 ; (1 found)
0x2c1d8: in al, 0x56 ; add al, 0x00 ; add rsp, 0x28 ; ret ; (1 found)
0x197ae: in al, 0xFF ; call qword [rax-0x0165F017] ; (1 found)
0x108e9: in al, dx ; and byte [rax-0x75], cl ; retn 0x8B48 ; (1 found)
0x16029: in al, dx ; and byte [rbx], dh ; dec  [rdx+0x3D3840D9] ; ret ; (1 found)
0x9328: in al, dx ; mov byte [r8], al ; xor eax, eax ; ret ; (1 found)
0x40f55: in al, dx ; mov byte [r9], al ; mov eax, 0x00000001 ; ret ; (1 found)
0x4753: in al, dx ; movzx eax, al ; ret ; (1 found)
0x4b3d: in al, dx ; ret ; (1 found)
0x2fec2: in al, dx ; sub byte [rax-0x007F], cl ; retn 0x0FFF ; (1 found)
0x7e4c2: in al, dx ; sub byte [rbx+0x057C05F9], al ; add rsp, 0x28 ; ret ; (1 found)
0x2646f: in al, dx ; xor byte [rax-0x75], cl ; retn 0x8B4C ; (1 found)
0x84c24: in al, dx ; xor byte [rbx], dh ; jmp qword [rsi-0x77] ; (2 found)
0x15025: in ax, dx ; mov word [r9], ax ; mov eax, 0x00000002 ; ret ; (1 found)
0x4773: in ax, dx ; movzx eax, ax ; ret ; (1 found)
0x11c5f: in eax, 0x00 ; add byte [rcx-0x75], al ; retn 0xC085 ; (1 found)
0x1d94d: in eax, 0xFE ; call qword [rax-0x011AD517] ; (1 found)
0x19721: in eax, 0xFF ; call qword [rax-0x01653717] ; (1 found)
0x24f7c: in eax, 0xFF ; ret ; (1 found)
0x39f88: in eax, dx ; add byte [rax], al ; add byte [0xFFFFFFFFC0039F93], al ; ret ; (1 found)
0x8ef3: in eax, dx ; add eax, 0xC3017700 ; mov  [0x0000000000067C98], ecx ; ret ; (1 found)
0x15386: in eax, dx ; add rsp, 0x28 ; ret ; (1 found)
0x40f8c: in eax, dx ; mov  [r9], eax ; mov eax, 0x00000004 ; ret ; (1 found)
0x48e4: in eax, dx ; mov eax, eax ; ret ; (1 found)
0x7a60: in eax, dx ; mov rax, rdx ; ret ; (1 found)
0x1fb77: in eax, dx ; mov si, seg? ; call qword [rax-0x00F0CB17] ; (1 found)
0x15026: in eax, dx ; mov word [r9], ax ; mov eax, 0x00000002 ; ret ; (1 found)
0x4774: in eax, dx ; movzx eax, ax ; ret ; (1 found)
0x4763: in eax, dx ; ret ; (2 found)
0x89296: inc  [r11] ; ret ; (1 found)
0x2463f: inc  [r9-0x7B] ; retn 0x840F ; (1 found)
0x3bb75: inc  [rax] ; add al, dh ; dec  [rax+0x23] ; ret ; (1 found)
0x34c28: inc  [rax] ; add byte [rax+0x0B], cl ; retn 0x2348 ; (1 found)
0x1460d: inc  [rax] ; add byte [rax-0x75], cl ; ret ; (1 found)
0x8a194: inc  [rbp+0x19840FC0] ; cmp byte [rax], al ; add byte [rax-0x7D], cl ; ret ; (1 found)
0x7d75b: inc  [rbp+0x33] ; jmp qword [rsi+0x44] ; (1 found)
0x8da07: inc  [rbp+0x33] ; ror byte [rax-0x39], 0x44 ; and al, 0x20 ; retn 0x0000 ; (1 found)
0x7630b: inc  [rbp+rcx*4+0x43] ; add al, byte [rax+rax*8-0x74BBFC8B] ; ret ; (1 found)
0x1a554: inc  [rbp-0x00D58740] ; ret ; (1 found)
0x82f7c: inc  [rbp-0x00F98740] ; ret ; (1 found)
0x7a29d: inc  [rbp-0x3F66F040] ; add rsp, 0x28 ; ret ; (3 found)
0x7d283: inc  [rbp-0x75] ; retn 0x8341 ; (1 found)
0x26889: inc  [rbp-0x7B] ; sal byte [rbx+rdx+0x48], 0x8B ; xor byte [rcx+0x23], cl ; ret ; (1 found)
0x1c5e3: inc  [rbx+0x067402FA] ; mov eax, 0xC0000001 ; ret ; (1 found)
0x90184: inc  [rbx+0x067501F8] ; mov byte [0x000000000006A088], al ; add rsp, 0x28 ; ret ; (2 found)
0x80dfd: inc  [rbx-0x7AF0F701] ; insd ; ret ; (1 found)
0x81d4f: inc  [rbx-0x7BF0C007] ; ret ; (1 found)
0x16f88: inc  [rbx] ; add byte [rax], al ; mov al, 0x01 ; ret ; (1 found)
0x89297: inc  [rbx] ; ret ; (1 found)
0x169a9: inc  [rcx+0x0002F0E7] ; add byte [rax-0x7B], cl ; ror byte [rdi], 0x95 ; ret ; (1 found)
0x1f369: inc  [rcx+0x2B] ; ret ; (1 found)
0x8dc71: inc  [rcx-0x01] ; ret ; (1 found)
0x2463c: inc  [rcx-0x73] ; inc  [r9-0x7B] ; retn 0x840F ; (1 found)
0x24640: inc  [rcx-0x7B] ; retn 0x840F ; (1 found)
0x759eb: inc  [rcx] ; add rsp, 0x48 ; ret ; (1 found)
0x88095: inc  [rcx] ; ret ; (1 found)
0x176c0: inc  [rdi+0x04] ; pop rdi ; ret ; (1 found)
0x3f395: inc  [rdi] ; add byte [rax+0x33], cl ; ret ; (1 found)
0x79619: inc  [rdx+rcx*4+0x43] ; add eax, 0x000002B9 ; add byte [rdx+0x7DE80453], cl ; ret ; (1 found)
0x2d6d4: inc byte [rbx+0x058902C8] ; out 0xC9, al ; add eax,  [rax] ; ret ; (1 found)
0x41c2f: inc byte [rbx+0x418904C8] ; or al, dh ; or  [rsp+0x00], 0x00000000 ; ret ; (1 found)
0x4686f: inc byte [rcx+0x0B] ; ret ; (2 found)
0x1173a: inc byte [rcx+0x0B] ; retn 0xC141 ; (2 found)
0x11a2e: inc byte [rsi] ; add byte [rax], al ; add rsp, 0x28 ; ret ; (1 found)
0x3f70a: inc ecx ; mov  [0x00000000000658C0], ecx ; mov al, dl ; ret ; (1 found)
0x12998: inc ecx ; mov  [rdx+0x78], ecx ; ret ; (1 found)
0x11d9e: insb ; add rsp, 0x20 ; pop rbx ; ret ; (4 found)
0x126a1: insb ; add rsp, 0x20 ; pop rdi ; ret ; (2 found)
0x8f605: insb ; and al, 0x10 ; mov rdi, qword [rsp+0x18] ; ret ; (1 found)
0x8f4f4: insb ; and al, 0x10 ; mov rsi, qword [rsp+0x18] ; ret ; (1 found)
0x7a50d: insb ; and byte [rax-0x7D], cl ; retn 0x891F ; (1 found)
0x12634: insb ; ret ; (3 found)
0x813ea: insd ; clc ; call qword [rax-0x0037ED17] ; (1 found)
0x1e9f6: insd ; idiv esi ; dec  [rax-0x7D] ; ret ; (1 found)
0x80e03: insd ; ret ; (1 found)
0x2b487: insd ; retn 0x0003 ; (1 found)
0x3fce7: int 0x00 ; add byte [rax], al ; add rsp, 0x48 ; ret ; (1 found)
0x28cad: int 0x23 ; retn 0xC82B ; (1 found)
0x24dbb: int 0x80 ; (4 found)
0x82f77: int 0xE8 ; mov ebx, 0x85FFFFFE ; sar byte [rax+0x06], 0xFF ; ret ; (1 found)
0x8dc6f: int 0xFF ; inc  [rcx-0x01] ; ret ; (1 found)
0x12ff1: int 0xFF ; retn 0xFF49 ; (2 found)
0x7b1f: int1 ; add eax, r8d ; ret ; (2 found)
0x42229: int1 ; imul rax, r8 ; ret ; (1 found)
0x4221e: int1 ; imul rax, rcx ; ret ; (1 found)
0x32556: int1 ; mov eax, 0xC000000D ; ret ; (1 found)
0x41e7f: int1 ; mov eax, edx ; ret ; (1 found)
0x42231: int1 ; ret ; (1 found)
0x77df9: int1 ; sbb byte [rax], al ; add byte [rax-0x75], cl ; ret ; (1 found)
0x1732e: int1 ; xor rax, rax ; ret ; (1 found)
0x81d4c: int3 ; aam 0xFF ; inc  [rbx-0x7BF0C007] ; ret ; (1 found)
0x2eff7: int3 ; add rsp, 0x28 ; ret ; (1 found)
0x3813b: int3 ; add rsp, 0x30 ; pop rbx ; ret ; (2 found)
0x29e55: int3 ; add rsp, 0x68 ; ret ; (1 found)
0x4a6f: int3 ; and  [rcx+0x10], 0xFFFFFFFE ; ret ; (1 found)
0x4a8f: int3 ; btr  [rcx+0x10], 0x09 ; ret ; (1 found)
0x4a7f: int3 ; btr  [rcx+0x10], 0x0A ; ret ; (1 found)
0x4aff: int3 ; bts  [rcx+0x10], 0x09 ; ret ; (1 found)
0x4aef: int3 ; bts  [rcx+0x10], 0x0A ; ret ; (1 found)
0x2ff4f: int3 ; cmp qword [0x0000000000065CE0], 0x0000000000000000 ; setne al ; ret ; (1 found)
0x9cab: int3 ; cmp qword [0x0000000000066FA8], 0x0000000000000000 ; setne al ; ret ; (1 found)
0x2d54b: int3 ; cmp qword [0x0000000000066FC8], 0x0000000000000000 ; setne al ; ret ; (1 found)
0x4a6e: int3 ; int3 ; and  [rcx+0x10], 0xFFFFFFFE ; ret ; (1 found)
0x4a8e: int3 ; int3 ; btr  [rcx+0x10], 0x09 ; ret ; (1 found)
0x4a7e: int3 ; int3 ; btr  [rcx+0x10], 0x0A ; ret ; (1 found)
0x4afe: int3 ; int3 ; bts  [rcx+0x10], 0x09 ; ret ; (1 found)
0x4aee: int3 ; int3 ; bts  [rcx+0x10], 0x0A ; ret ; (1 found)
0x45ed: int3 ; int3 ; int3 ; retn 0x0000 ; (1 found)
0x3636e: int3 ; int3 ; lea rax, qword [0x0000000000017450] ; ret ; (1 found)
0x37e0e: int3 ; int3 ; lea rax, qword [0x0000000000065970] ; ret ; (1 found)
0x7518e: int3 ; int3 ; mov al, 0x01 ; ret ; (2 found)
0x7d3ae: int3 ; int3 ; mov al, byte [0x0000000000067C08] ; ret ; (1 found)
0x16ffe: int3 ; int3 ; mov al, byte [0x0000000000067D18] ; ret ; (1 found)
0x45fe: int3 ; int3 ; mov byte [0x0000000000066D60], 0x01 ; ret ; (1 found)
0x8808e: int3 ; int3 ; mov byte [0x0000000000067BE8], 0x01 ; ret ; (1 found)
0x49ae: int3 ; int3 ; mov byte [rcx], dl ; ret ; (1 found)
0x44da: int3 ; int3 ; mov eax,  [0x0000000000065984] ; ret ; (1 found)
0x2e6b2: int3 ; int3 ; mov eax,  [0x00000000000674C8] ; ret ; (1 found)
0x478e: int3 ; int3 ; mov eax,  [rcx] ; ret ; (1 found)
0x751ae: int3 ; int3 ; mov eax, 0x00000001 ; ret ; (2 found)
0x482e: int3 ; int3 ; mov eax, 0xC0000002 ; ret ; (1 found)
0x7519e: int3 ; int3 ; mov eax, 0xC00000BB ; ret ; (2 found)
0x7b656: int3 ; int3 ; mov eax, 0xC0000225 ; ret ; (1 found)
0x30056: int3 ; int3 ; mov qword [0x000000000006A078], rcx ; ret ; (1 found)
0x459e: int3 ; int3 ; mov rax, 0x8000000000000003 ; ret ; (1 found)
0x46fe: int3 ; int3 ; mov rax, qword [0x0000000000065C90] ; ret ; (1 found)
0x46ae: int3 ; int3 ; mov rax, qword [0x0000000000065DF8] ; ret ; (1 found)
0x2a6e2: int3 ; int3 ; mov rax, qword [0x0000000000067708] ; ret ; (1 found)
0x450e: int3 ; int3 ; mov rax, qword [0x0000000000067CA8] ; ret ; (1 found)
0x2fee2: int3 ; int3 ; mov rax, qword [0x000000000006A078] ; ret ; (1 found)
0x458e: int3 ; int3 ; mov rax, qword [rcx+0x000001F0] ; ret ; (1 found)
0x477e: int3 ; int3 ; movzx eax, byte [rcx] ; ret ; (1 found)
0x479e: int3 ; int3 ; movzx eax, word [rcx] ; ret ; (1 found)
0x2eea6: int3 ; int3 ; nop ; ret ; (1 found)
0x178e4: int3 ; int3 ; nop word [rax+rax+0x00000000] ; jmp rax ; (1 found)
0x4ade: int3 ; int3 ; or  [rcx+0x10], 0x01 ; ret ; (1 found)
0x45ee: int3 ; int3 ; retn 0x0000 ; (1 found)
0x4994e: int3 ; int3 ; wbinvd ; ret ; (1 found)
0x481e: int3 ; int3 ; xor al, al ; ret ; (1 found)
0x7d45e: int3 ; int3 ; xor eax, eax ; ret ; (2 found)
0x3636f: int3 ; lea rax, qword [0x0000000000017450] ; ret ; (1 found)
0x37e0f: int3 ; lea rax, qword [0x0000000000065970] ; ret ; (1 found)
0x480f: int3 ; mov  [rcx], 0x00000008 ; xor eax, eax ; ret ; (1 found)
0x47ef: int3 ; mov  [rcx], edx ; lock or  [rsp+0x00], 0x00000000 ; ret ; (1 found)
0x7518f: int3 ; mov al, 0x01 ; ret ; (2 found)
0x7d3af: int3 ; mov al, byte [0x0000000000067C08] ; ret ; (1 found)
0x16fff: int3 ; mov al, byte [0x0000000000067D18] ; ret ; (1 found)
0x45ff: int3 ; mov byte [0x0000000000066D60], 0x01 ; ret ; (1 found)
0x8808f: int3 ; mov byte [0x0000000000067BE8], 0x01 ; ret ; (1 found)
0x47df: int3 ; mov byte [rcx], dl ; lock or  [rsp+0x00], 0x00000000 ; ret ; (1 found)
0x49af: int3 ; mov byte [rcx], dl ; ret ; (1 found)
0x44db: int3 ; mov eax,  [0x0000000000065984] ; ret ; (1 found)
0x2e6b3: int3 ; mov eax,  [0x00000000000674C8] ; ret ; (1 found)
0x478f: int3 ; mov eax,  [rcx] ; ret ; (1 found)
0x751af: int3 ; mov eax, 0x00000001 ; ret ; (2 found)
0x482f: int3 ; mov eax, 0xC0000002 ; ret ; (1 found)
0x7519f: int3 ; mov eax, 0xC00000BB ; ret ; (2 found)
0x7b657: int3 ; mov eax, 0xC0000225 ; ret ; (1 found)
0x2b71c: int3 ; mov eax, ecx ; add rsp, 0x38 ; ret ; (1 found)
0x30057: int3 ; mov qword [0x000000000006A078], rcx ; ret ; (1 found)
0x459f: int3 ; mov rax, 0x8000000000000003 ; ret ; (1 found)
0x495f: int3 ; mov rax, qword [0x0000000000065798] ; mov eax,  [rax+0x000000F0] ; ret ; (1 found)
0x46ff: int3 ; mov rax, qword [0x0000000000065C90] ; ret ; (1 found)
0x46af: int3 ; mov rax, qword [0x0000000000065DF8] ; ret ; (1 found)
0x2a6e3: int3 ; mov rax, qword [0x0000000000067708] ; ret ; (1 found)
0x450f: int3 ; mov rax, qword [0x0000000000067CA8] ; ret ; (1 found)
0x2fee3: int3 ; mov rax, qword [0x000000000006A078] ; ret ; (1 found)
0x46bf: int3 ; mov rax, qword [gs:0x00000018] ; mov al, byte [rax+0x000000D6] ; ret ; (1 found)
0x46df: int3 ; mov rax, qword [gs:0x00000018] ; mov byte [rax+0x000000D6], cl ; ret ; (1 found)
0x458f: int3 ; mov rax, qword [rcx+0x000001F0] ; ret ; (1 found)
0x48ef: int3 ; mov rax, qword [rcx+0x08] ; mov eax,  [rax] ; ret ; (1 found)
0x47ff: int3 ; mov word [rcx], dx ; lock or  [rsp+0x00], 0x00000000 ; ret ; (1 found)
0x477f: int3 ; movzx eax, byte [rcx] ; ret ; (1 found)
0x479f: int3 ; movzx eax, word [rcx] ; ret ; (1 found)
0x475f: int3 ; movzx edx, cx ; in eax, dx ; ret ; (1 found)
0x2eea7: int3 ; nop ; ret ; (1 found)
0x178e5: int3 ; nop word [rax+rax+0x00000000] ; jmp rax ; (1 found)
0x4adf: int3 ; or  [rcx+0x10], 0x01 ; ret ; (1 found)
0x34e90: int3 ; ret ; (1 found)
0x45ef: int3 ; retn 0x0000 ; (1 found)
0x4994f: int3 ; wbinvd ; ret ; (1 found)
0x468f: int3 ; xchg qword [0x0000000000067FA8], rcx ; mov rax, rcx ; ret ; (1 found)
0x481f: int3 ; xor al, al ; ret ; (1 found)
0x3fda9: int3 ; xor eax, eax ; add rsp, 0x38 ; ret ; (1 found)
0x7d45f: int3 ; xor eax, eax ; ret ; (2 found)
0x467b: invlpg byte [rcx] ; mov rax, rcx ; ret ; (1 found)
0x3532: invlpg byte [rdx] ; mov rax, rdx ; add rsp, 0x38 ; ret ; (1 found)
0x783ae: iretq ; (11 found)
0x4278f: jmp qword [r14+0x44] ; (1 found)
0x3e7cd: jmp qword [rax-0x27750000] ; (1 found)
0x81d99: jmp qword [rax] ; (3 found)
0x34a56: jmp qword [rbp+0x44] ; (1 found)
0x800ad: jmp qword [rbp+0x48] ; (9 found)
0x711c: jmp qword [rbp+0x4C] ; (1 found)
0x821c0: jmp qword [rbp-0x75] ; (11 found)
0x81fee: jmp qword [rbx] ; (2 found)
0x1a4d: jmp qword [rcx+0x06] ; (1 found)
0x7f808: jmp qword [rcx] ; (9 found)
0x1aeb: jmp qword [rdi+0x01] ; (1 found)
0x26a65: jmp qword [rdi+0x1F0F0004] ; (1 found)
0x1567d: jmp qword [rdi] ; (1 found)
0x26dd5: jmp qword [rdx+0x1F0F0004] ; (1 found)
0x41b1b: jmp qword [rdx+rsi*2-0x18] ; (1 found)
0x1697c: jmp qword [rdx] ; (1 found)
0x8d96a: jmp qword [rsi+0x00] ; (1 found)
0x204d5: jmp qword [rsi+0x03] ; (8 found)
0x8def3: jmp qword [rsi+0x09] ; (1 found)
0x8142f: jmp qword [rsi+0x0B] ; (3 found)
0x202a0: jmp qword [rsi+0x39] ; (1 found)
0x21bb3: jmp qword [rsi+0x3B] ; (1 found)
0x21e6f: jmp qword [rsi+0x41] ; (1 found)
0x792a8: jmp qword [rsi+0x44] ; (11 found)
0xa364: jmp qword [rsi+0x47] ; (1 found)
0x179c2: jmp qword [rsi+0x66] ; (2 found)
0x88677: jmp qword [rsi-0x39] ; (1 found)
0x27785: jmp qword [rsi-0x3F] ; (2 found)
0x76f14: jmp qword [rsi-0x77] ; (10 found)
0x2032d: jmp qword [rsi] ; (1 found)
0x178f0: jmp rax ; (1 found)
0x9735: jmp rbx ; (1 found)
0x17441: jmp rcx ; (2 found)
0x8235d: jmp rdx ; (2 found)
0x40430: jmp rsi ; (1 found)
0x7dc63: lahf ; aaa ; add byte [rax], al ; ret ; (1 found)
0x80e32: lahf ; retn 0xFFFF ; (1 found)
0x327e6: lea eax,  [0x0000000000004750] ; mov rax, r8 ; ret ; (1 found)
0x32856: lea eax,  [0x00000000000047B0] ; mov rax, r8 ; ret ; (1 found)
0x36371: lea eax,  [0x0000000000017450] ; ret ; (1 found)
0x7815f: lea eax,  [0x000000000002D5A0] ; mov qword [rcx+0x30], rax ; mov eax, edx ; ret ; (1 found)
0x4a51: lea eax,  [0x000000000004D940] ; mov qword [rcx], rax ; xor eax, eax ; ret ; (1 found)
0x8c409: lea eax,  [0x0000000000064A68] ; mov qword [0x0000000000064A70], rax ; mov qword [0x0000000000064A68], rax ; ret ; (1 found)
0x133a7: lea eax,  [0x0000000000064D90] ; ret ; (1 found)
0x37e11: lea eax,  [0x0000000000065970] ; ret ; (1 found)
0x44f4: lea eax,  [0x0000000000067630] ; mov qword [0x0000000000067638], rax ; mov qword [0x0000000000067630], rax ; ret ; (1 found)
0x75131: lea eax,  [0x0000000000078240] ; mov qword [rcx], rax ; xor eax, eax ; ret ; (1 found)
0x1296d: lea eax,  [rax+0x19] ; lea rax, qword [rax+rcx*4] ; ret ; (1 found)
0x2edb3: lea eax,  [rax+rax*4] ; mov byte [rax+r10+0x000911E0], 0x0F ; mov  [rax+r10+0x000911E1], edx ; ret ; (1 found)
0x12971: lea eax,  [rax+rcx*4] ; ret ; (1 found)
0x3db8a: lea eax,  [rax+rcx*8] ; mov rbx, qword [rsp+0x08] ; mov rax, r8 ; ret ; (2 found)
0x27f26: lea eax,  [rax+rcx*8] ; ret ; (1 found)
0x12965: lea eax,  [rcx+rax*4] ; ret ; (1 found)
0x7b1e: lea eax,  [rcx-0x0F] ; add eax, r8d ; ret ; (1 found)
0x3339: lea eax,  [rdx+rcx*8] ; shl rax, 0x0C ; add rax, qword [r9-0x0A] ; ret ; (1 found)
0x32e07: lea eax,  [rdx+rdx] ; cmove eax, edx ; ret ; (1 found)
0x8f692: lea eax,  [rdx-0x01] ; mov rbx, qword [rsp+0x08] ; ret ; (1 found)
0x8805e: lea ecx,  [0x0000000000016DE0] ; mov qword [rax+0x50], rcx ; ret ; (1 found)
0x13379: lea ecx,  [0x0000000000064DC0] ; add rax, rcx ; ret ; (1 found)
0x45a0f: lea ecx,  [0x0000000000067F28] ; movzx r8d, byte [rax+rcx] ; mov eax, r8d ; ret ; (1 found)
0x8a130: lea ecx,  [0x00000000000782C0] ; mov qword [rax+0x00000098], rcx ; add rsp, 0x28 ; ret ; (1 found)
0x88078: lea ecx,  [0x000000000007E4C0] ; mov qword [rax+0x00000130], rcx ; ret ; (1 found)
0x27f1e: lea ecx,  [rax+rax*8] ; mov rax, qword [r9+0x10] ; lea rax, qword [rax+rcx*8] ; ret ; (1 found)
0x2aee1: lea ecx,  [rbp-0x18] ; xor edx, edx ; mov rax, qword [rax] ; call rax ; (1 found)
0x2b352: lea ecx,  [rbp-0x28] ; mov rax, qword [rax+0x08] ; call rax ; (1 found)
0x2b26c: lea ecx,  [rbp-0x28] ; xor edx, edx ; mov rax, qword [rax] ; call rax ; (1 found)
0x12969: lea ecx,  [rdx-0x04] ; lea rax, qword [r8+0x19] ; lea rax, qword [rax+rcx*4] ; ret ; (1 found)
0x2ac11: lea ecx,  [rsp+0x30] ; mov rax, qword [rax+0x20] ; call rax ; (1 found)
0x2ad6e: lea ecx,  [rsp+0x38] ; mov r8, r10 ; mov rax, qword [rax+0x18] ; call rax ; (1 found)
0x2ac0d: lea edx,  [rbp-0x60] ; lea rcx, qword [rsp+0x30] ; mov rax, qword [rax+0x20] ; call rax ; (1 found)
0x781e7: lea edx,  [rdx+0x1F0FFFFF] ; add byte [rax], r8L ; add rsp, 0x38 ; ret ; (1 found)
0x8101f: lea esi,  [rcx-0x08] ; call qword [rax-0x00383617] ; (1 found)
0x327e5: lea r8, qword [0x0000000000004750] ; mov rax, r8 ; ret ; (1 found)
0x32855: lea r8, qword [0x00000000000047B0] ; mov rax, r8 ; ret ; (1 found)
0x3db89: lea r8, qword [r8+rcx*8] ; mov rbx, qword [rsp+0x08] ; mov rax, r8 ; ret ; (2 found)
0x2ad6d: lea r9, qword [rsp+0x38] ; mov r8, r10 ; mov rax, qword [rax+0x18] ; call rax ; (1 found)
0x36370: lea rax, qword [0x0000000000017450] ; ret ; (1 found)
0x7815e: lea rax, qword [0x000000000002D5A0] ; mov qword [rcx+0x30], rax ; mov eax, edx ; ret ; (1 found)
0x4a50: lea rax, qword [0x000000000004D940] ; mov qword [rcx], rax ; xor eax, eax ; ret ; (1 found)
0x8c408: lea rax, qword [0x0000000000064A68] ; mov qword [0x0000000000064A70], rax ; mov qword [0x0000000000064A68], rax ; ret ; (1 found)
0x133a6: lea rax, qword [0x0000000000064D90] ; ret ; (1 found)
0x37e10: lea rax, qword [0x0000000000065970] ; ret ; (1 found)
0x44f3: lea rax, qword [0x0000000000067630] ; mov qword [0x0000000000067638], rax ; mov qword [0x0000000000067630], rax ; ret ; (1 found)
0x75130: lea rax, qword [0x0000000000078240] ; mov qword [rcx], rax ; xor eax, eax ; ret ; (1 found)
0x1296c: lea rax, qword [r8+0x19] ; lea rax, qword [rax+rcx*4] ; ret ; (1 found)
0x2edb2: lea rax, qword [rax+rax*4] ; mov byte [rax+r10+0x000911E0], 0x0F ; mov  [rax+r10+0x000911E1], edx ; ret ; (1 found)
0x12970: lea rax, qword [rax+rcx*4] ; ret ; (1 found)
0x27f25: lea rax, qword [rax+rcx*8] ; ret ; (1 found)
0x12964: lea rax, qword [rcx+rax*4] ; ret ; (1 found)
0x3338: lea rax, qword [rdx+rcx*8] ; shl rax, 0x0C ; add rax, qword [r9-0x0A] ; ret ; (1 found)
0x8805b: lea rcx, qword [0x0000000000016DE0] ; mov qword [rax+0x50], rcx ; ret ; (3 found)
0x13378: lea rcx, qword [0x0000000000064DC0] ; add rax, rcx ; ret ; (1 found)
0x45a0e: lea rcx, qword [0x0000000000067F28] ; movzx r8d, byte [rax+rcx] ; mov eax, r8d ; ret ; (1 found)
0x8a12f: lea rcx, qword [0x00000000000782C0] ; mov qword [rax+0x00000098], rcx ; add rsp, 0x28 ; ret ; (1 found)
0x88077: lea rcx, qword [0x000000000007E4C0] ; mov qword [rax+0x00000130], rcx ; ret ; (1 found)
0x27f1d: lea rcx, qword [rax+rax*8] ; mov rax, qword [r9+0x10] ; lea rax, qword [rax+rcx*8] ; ret ; (1 found)
0x2aee0: lea rcx, qword [rbp-0x18] ; xor edx, edx ; mov rax, qword [rax] ; call rax ; (1 found)
0x2b351: lea rcx, qword [rbp-0x28] ; mov rax, qword [rax+0x08] ; call rax ; (1 found)
0x2b26b: lea rcx, qword [rbp-0x28] ; xor edx, edx ; mov rax, qword [rax] ; call rax ; (1 found)
0x2ac10: lea rcx, qword [rsp+0x30] ; mov rax, qword [rax+0x20] ; call rax ; (1 found)
0x2ac0c: lea rdx, qword [rbp-0x60] ; lea rcx, qword [rsp+0x30] ; mov rax, qword [rax+0x20] ; call rax ; (1 found)
0x2d6db: leave ; add eax,  [rax] ; ret ; (1 found)
0x8ffc1: leave ; mov al, cl ; ret ; (1 found)
0x33428: leave ; or byte [rdx-0x3FCCBA3F], 0xEB ; or al, 0x8A ; ret ; (1 found)
0x35450: leave ; wrmsr ; add rsp, 0x38 ; ret ; (1 found)
0x169ac: lock add al, byte [rax] ; add byte [rax-0x7B], cl ; ror byte [rdi], 0x95 ; ret ; (1 found)
0x31524: lock add rax, qword [rax] ; add rsp, 0x30 ; pop rbx ; ret ; (1 found)
0x12c84: lock dec  [0x0000000000065A78] ; mov al, r8L ; add rsp, 0x38 ; ret ; (1 found)
0x7a1c3: lock dec  [0x000000000006A060] ; xor eax, eax ; ret ; (1 found)
0x3bb78: lock dec  [rax+0x23] ; ret ; (1 found)
0x3e673: lock dec  [rax+0x23] ; retn 0xC148 ; (1 found)
0x3f394: lock inc  [rdi] ; add byte [rax+0x33], cl ; ret ; (1 found)
0x8ba67: lock mov eax, 0xC0000225 ; add rsp, 0x38 ; ret ; (1 found)
0x43639: lock mov rbx, qword [rsp+0x30] ; add rsp, 0x20 ; pop rdi ; ret ; (1 found)
0xc152: lock or  [rdx], r8d ; ret ; (1 found)
0x80978: lock or  [rsp+0x00], 0x00000000 ; add rsp, 0x30 ; pop rbp ; ret ; (1 found)
0x499c: lock or  [rsp+0x00], 0x00000000 ; and  [rcx+0x08], 0x00000000 ; mov  [rcx+0x20], eax ; ret ; (1 found)
0x3b6b9: lock or  [rsp+0x00], 0x00000000 ; mov rbx, qword [rsp+0x08] ; mov rdi, qword [rsp+0x10] ; ret ; (1 found)
0x7b4b8: lock or  [rsp+0x00], 0x00000000 ; ret ; (6 found)
0x48717: lock or  [rsp+0x00], 0x00000000 ; xor eax, eax ; ret ; (1 found)
0x83bd6: lock or  [rsp+0x00], r10d ; xor eax, eax ; ret ; (1 found)
0x7b48c: lock or  [rsp+0x00], r8d ; ret ; (1 found)
0x7d447: lock or  [rsp+0x00], r8d ; xor eax, eax ; ret ; (1 found)
0x477ad: lock or eax,  [rcx+0x0B] ; ret ; (1 found)
0x11744: lock or eax,  [rcx+0x0B] ; retn 0x4189 ; (1 found)
0x476db: lock or eax,  [rcx+0x0B] ; retn 0x8941 ; (1 found)
0x7b4b2: lock push cs ; mov qword [rcx+0x18], rax ; lock or  [rsp+0x00], 0x00000000 ; ret ; (1 found)
0x42477: lock rdtsc ; shl rdx, 0x20 ; or rax, rdx ; ret ; (1 found)
0x17d27: lock ret ; (1 found)
0x80e94: lock test al, 0xFF ; call qword [rax-0x003D7517] ; (1 found)
0x33929: lock xadd  [0x000000000006A060], eax ; add rsp, 0x30 ; pop rbx ; ret ; (2 found)
0x2c072: lock xadd  [0x000000000006A060], eax ; mov eax, 0xC0000001 ; ret ; (1 found)
0x8dc6e: lodsb ; int 0xFF ; inc  [rcx-0x01] ; ret ; (1 found)
0x85452: lodsd ; add byte [rax], al ; add byte [rbx+0x0B410847], cl ; retn 0x8942 ; (1 found)
0x2029d: lodsd ; sbb edi, edi ; jmp qword [rsi+0x39] ; (1 found)
0x88027: mov  [0x0000000000064898], eax ; ret ; (1 found)
0x7a189: mov  [0x0000000000064900], eax ; mov qword [r9], rax ; xor eax, eax ; ret ; (1 found)
0x44b10: mov  [0x0000000000064978], 0x00000500 ; add rsp, 0x20 ; pop rbx ; ret ; (1 found)
0x8c417: mov  [0x0000000000064A68], eax ; ret ; (1 found)
0x8c410: mov  [0x0000000000064A70], eax ; mov qword [0x0000000000064A68], rax ; ret ; (1 found)
0x3f70c: mov  [0x00000000000658C0], ecx ; mov al, dl ; ret ; (1 found)
0x8c67c: mov  [0x0000000000065948], ecx ; mov qword [rcx], rax ; add rsp, 0x38 ; ret ; (1 found)
0xc054: mov  [0x0000000000065C90], eax ; ret ; (1 found)
0x4f1b: mov  [0x0000000000065CC0], eax ; ret ; (1 found)
0x53df: mov  [0x0000000000065D50], eax ; add rsp, 0x40 ; pop rdi ; ret ; (1 found)
0x313af: mov  [0x0000000000065DF0], eax ; add rsp, 0x38 ; ret ; (1 found)
0x531a: mov  [0x0000000000065E18], eax ; add rsp, 0x28 ; ret ; (1 found)
0x31522: mov  [0x0000000000065E18], eax ; add rsp, 0x30 ; pop rbx ; ret ; (1 found)
0x14855: mov  [0x0000000000066150], ecx ; add rsp, 0x30 ; pop rdi ; ret ; (1 found)
0x8bec8: mov  [0x0000000000066F60], eax ; xor eax, eax ; add rsp, 0x28 ; ret ; (1 found)
0x4502: mov  [0x0000000000067630], eax ; ret ; (1 found)
0x44fb: mov  [0x0000000000067638], eax ; mov qword [0x0000000000067630], rax ; ret ; (1 found)
0x2082a: mov  [0x0000000000067BE4], 0x0000000C ; mov eax, 0xC000000D ; ret ; (1 found)
0x2081a: mov  [0x0000000000067BE4], 0x0000000D ; mov eax, 0xC0000225 ; ret ; (1 found)
0x8ef9: mov  [0x0000000000067C98], ecx ; ret ; (1 found)
0x158db: mov  [0x0000000000067EA0], eax ; mov  [0x0000000000067EA8], 0x00000000 ; xor eax, eax ; ret ; (1 found)
0x158e1: mov  [0x0000000000067EA8], 0x00000000 ; xor eax, eax ; ret ; (1 found)
0x152fe: mov  [0x0000000000067F28], eax ; and  [0x0000000000067F28], 0xFFFFFFFC ; ret ; (1 found)
0x152fd: mov  [0x0000000000067F28], r8d ; and  [0x0000000000067F28], 0xFFFFFFFC ; ret ; (1 found)
0x112da: mov  [0x0000000000067F40], 0x00000001 ; add rsp, 0x20 ; pop rbx ; ret ; (1 found)
0x1428e: mov  [0x0000000000067FC0], edx ; add rsp, 0x28 ; ret ; (1 found)
0x31dbc: mov  [0x00000000000690E0], eax ; add rsp, 0x38 ; ret ; (1 found)
0x30059: mov  [0x000000000006A078], ecx ; ret ; (1 found)
0x2d6d8: mov  [0x000000000006A0C4], eax ; ret ; (1 found)
0x30177: mov  [0x000000000006A148], 0x00000001 ; mov eax, edx ; add rsp, 0x38 ; ret ; (1 found)
0x3b7b9: mov  [0x40245C8B48000014], eax ; add rsp, 0x30 ; pop rdi ; ret ; (1 found)
0xcce0: mov  [0x4870245C8B480000], eax ; add esp, 0x60 ; pop rdi ; ret ; (1 found)
0x1c124: mov  [0x85F88BFFFF45B2E8], eax ; sar byte [rax+0x5D], 0x8B ; ret ; (1 found)
0x7f950: mov  [0x8B00000120820FCC], eax ; ret ; (1 found)
0x477b2: mov  [r10+0x10], eax ; add rsp, 0x20 ; pop rbx ; ret ; (1 found)
0x4a00: mov  [r10], ecx ; mov  [r11], edx ; ret ; (1 found)
0x4499: mov  [r10], edx ; pop rbx ; ret ; (1 found)
0x476e0: mov  [r11+0x10], eax ; add rsp, 0x28 ; ret ; (1 found)
0x1224e: mov  [r11+0x10], r10d ; add rsp, 0x20 ; pop rdi ; ret ; (1 found)
0x7a2f: mov  [r11], eax ; mov rax, rcx ; add rsp, 0x28 ; ret ; (1 found)
0x4a03: mov  [r11], edx ; ret ; (1 found)
0x253c1: mov  [r14], r11d ; mov r14, qword [rsp+0x20] ; ret ; (1 found)
0x2feaa: mov  [r8+0x00000114], edx ; mov  [r8+0x00000118], r9d ; ret ; (1 found)
0x2feb1: mov  [r8+0x00000118], r9d ; ret ; (1 found)
0x35356: mov  [r8+0x08], ecx ; mov  [r8+0x0C], edx ; ret ; (1 found)
0x36362: mov  [r8+0x08], ecx ; ret ; (1 found)
0x362b4: mov  [r8+0x08], r11d ; mov word [r8+0x0E], r11w ; ret ; (1 found)
0x3535a: mov  [r8+0x0C], edx ; ret ; (1 found)
0x362b9: mov  [r8+0x0E], r11d ; ret ; (1 found)
0xa39f: mov  [r8+r10+0x04], eax ; ret ; (1 found)
0x486a: mov  [r8+rax], edx ; ret ; (1 found)
0x75750: mov  [r8], 0x00000004 ; mov eax, r9d ; add rsp, 0x28 ; ret ; (1 found)
0x7a13f: mov  [r8], 0x00000010 ; ret ; (1 found)
0xa967: mov  [r8], 0xC4834800 ; pop rbx ; ret ; (1 found)
0x35353: mov  [r8], eax ; mov  [r8+0x08], ecx ; mov  [r8+0x0C], edx ; ret ; (1 found)
0x8ea2: mov  [r8], eax ; xor eax, eax ; mov rbx, qword [rsp+0x08] ; ret ; (1 found)
0x16e3f: mov  [r8], ecx ; ret ; (1 found)
0x16d7c: mov  [r8], ecx ; xor eax, eax ; ret ; (1 found)
0x16948: mov  [r8], edx ; ret ; (1 found)
0x163b1: mov  [r8], r10d ; mov  [rcx], eax ; xor eax, eax ; ret ; (1 found)
0x90077: mov  [r8], r9d ; ret ; (2 found)
0x82b73: mov  [r9+0x06], ecx ; ret ; (1 found)
0x467f7: mov  [r9+0x10], ecx ; add rsp, 0x28 ; ret ; (1 found)
0x1211e: mov  [r9+0x10], edx ; add rsp, 0x28 ; ret ; (1 found)
0x46500: mov  [r9+0x10], edx ; ret ; (2 found)
0x7a27c: mov  [r9], 0x00000018 ; mov eax, edx ; add rsp, 0x38 ; ret ; (1 found)
0x15028: mov  [r9], eax ; mov eax, 0x00000002 ; ret ; (1 found)
0x40f8d: mov  [r9], eax ; mov eax, 0x00000004 ; ret ; (1 found)
0x4496: mov  [r9], ecx ; mov  [r10], edx ; pop rbx ; ret ; (1 found)
0x23e65: mov  [r9], r10d ; ret ; (1 found)
0x8a137: mov  [rax+0x00000098], ecx ; add rsp, 0x28 ; ret ; (1 found)
0x2feab: mov  [rax+0x00000114], edx ; mov  [r8+0x00000118], r9d ; ret ; (1 found)
0x2feb2: mov  [rax+0x00000118], ecx ; ret ; (1 found)
0x8807f: mov  [rax+0x00000130], ecx ; ret ; (1 found)
0x7d441: mov  [rax+0x00000158], edx ; lock or  [rsp+0x00], r8d ; xor eax, eax ; ret ; (1 found)
0x178cf: mov  [rax+0x000001F8], eax ; xor eax, eax ; add rsp, 0x28 ; ret ; (1 found)
0x2ac3: mov  [rax+0x00000300], edx ; ret ; (1 found)
0x2ab6: mov  [rax+0x00000310], ecx ; mov rax, qword [0x0000000000067C38] ; mov  [rax+0x00000300], edx ; ret ; (1 found)
0x15a67: mov  [rax+0x00000448], ecx ; add rsp, 0x20 ; pop rdi ; ret ; (1 found)
0x27fd7: mov  [rax+0x08], eax ; mov rax, rcx ; ret ; (1 found)
0x362b5: mov  [rax+0x08], ebx ; mov word [r8+0x0E], r11w ; ret ; (1 found)
0x35357: mov  [rax+0x08], ecx ; mov  [r8+0x0C], edx ; ret ; (1 found)
0x36363: mov  [rax+0x08], ecx ; ret ; (1 found)
0x3535b: mov  [rax+0x0C], edx ; ret ; (1 found)
0x362ba: mov  [rax+0x0E], ebx ; ret ; (1 found)
0x7762c: mov  [rax+0x18], edx ; mov qword [rax+0x20], r11 ; xor eax, eax ; ret ; (1 found)
0x77630: mov  [rax+0x20], ebx ; xor eax, eax ; ret ; (1 found)
0x8805a: mov  [rax+0x40], ecx ; lea rcx, qword [0x0000000000016DE0] ; mov qword [rax+0x50], rcx ; ret ; (1 found)
0x164a3: mov  [rax+0x40], ecx ; mov al, 0x01 ; add rsp, 0x28 ; ret ; (2 found)
0x88065: mov  [rax+0x50], ecx ; ret ; (1 found)
0x1781d: mov  [rax+0x78], eax ; add rsp, 0x28 ; xor eax, eax ; ret ; (1 found)
0x2edbf: mov  [rax+r10+0x000911E1], edx ; ret ; (1 found)
0x486b: mov  [rax+rax], edx ; ret ; (1 found)
0x4126d: mov  [rax+rcx*4], edi ; add rsp, 0x30 ; pop rdi ; ret ; (1 found)
0x2edc0: mov  [rax+rdx+0x000911E1], edx ; ret ; (1 found)
0xa3a0: mov  [rax+rdx+0x04], eax ; ret ; (1 found)
0x75751: mov  [rax], 0x00000004 ; mov eax, r9d ; add rsp, 0x28 ; ret ; (1 found)
0x7a140: mov  [rax], 0x00000010 ; ret ; (1 found)
0xa968: mov  [rax], 0xC4834800 ; pop rbx ; ret ; (1 found)
0x3d662: mov  [rax], eax ; add rsp, 0x38 ; ret ; (1 found)
0x35354: mov  [rax], eax ; mov  [r8+0x08], ecx ; mov  [r8+0x0C], edx ; ret ; (1 found)
0x948f: mov  [rax], eax ; mov al, 0x01 ; add rsp, 0x38 ; ret ; (1 found)
0x48c6: mov  [rax], eax ; mov al, 0x01 ; ret ; (1 found)
0x7948e: mov  [rax], eax ; mov eax, 0xC0000023 ; ret ; (1 found)
0x8ba04: mov  [rax], eax ; ret ; (1 found)
0x8ea3: mov  [rax], eax ; xor eax, eax ; mov rbx, qword [rsp+0x08] ; ret ; (1 found)
0x362b2: mov  [rax], ebx ; mov  [r8+0x08], r11d ; mov word [r8+0x0E], r11w ; ret ; (1 found)
0x37e50: mov  [rax], ebx ; xor al, al ; ret ; (1 found)
0x37e7f: mov  [rax], ecx ; mov al, 0x01 ; ret ; (2 found)
0x7767f: mov  [rax], ecx ; mov eax, r11d ; ret ; (1 found)
0x90078: mov  [rax], ecx ; ret ; (4 found)
0x44b6: mov  [rax], ecx ; xor eax, eax ; ret ; (2 found)
0x4679: mov  [rax], edx ; invlpg byte [rcx] ; mov rax, rcx ; ret ; (1 found)
0x163b2: mov  [rax], edx ; mov  [rcx], eax ; xor eax, eax ; ret ; (1 found)
0x1428b: mov  [rax], edx ; mov qword [0x0000000000067FC0], rdx ; add rsp, 0x28 ; ret ; (1 found)
0x124f4: mov  [rax], edx ; ret ; (3 found)
0x7948d: mov  [rax], r8d ; mov eax, 0xC0000023 ; ret ; (1 found)
0x7767e: mov  [rax], r9d ; mov eax, r11d ; ret ; (1 found)
0x31447: mov  [rbx+0x00000110], 0x00000933 ; add rsp, 0x30 ; pop rbx ; ret ; (1 found)
0x23617: mov  [rbx+0x04], 0x00000001 ; add rsp, 0x30 ; pop rbx ; ret ; (1 found)
0x476e1: mov  [rbx+0x10], eax ; add rsp, 0x28 ; ret ; (1 found)
0x1224f: mov  [rbx+0x10], edx ; add rsp, 0x20 ; pop rdi ; ret ; (1 found)
0x47607: mov  [rbx+0x20], eax ; add rsp, 0x20 ; pop rbx ; ret ; (1 found)
0x46f2e: mov  [rbx+0x2C], eax ; add rsp, 0x20 ; pop rbx ; ret ; (1 found)
0x803f9: mov  [rbx+0x44], 0x00000108 ; add rsp, 0x20 ; pop rbx ; ret ; (2 found)
0x1146e: mov  [rbx+0x58], edx ; add rsp, 0x20 ; pop rbx ; ret ; (3 found)
0x11d9d: mov  [rbx+0x6C], eax ; add rsp, 0x20 ; pop rbx ; ret ; (1 found)
0x11d9c: mov  [rbx+0x6C], r8d ; add rsp, 0x20 ; pop rbx ; ret ; (1 found)
0x45f46: mov  [rbx+0x78], edx ; add rsp, 0x20 ; pop rbx ; ret ; (1 found)
0x456f: mov  [rbx], 0x00000001 ; add rsp, 0x20 ; pop rbx ; ret ; (1 found)
0x7a30: mov  [rbx], eax ; mov rax, rcx ; add rsp, 0x28 ; ret ; (1 found)
0x16946: mov  [rbx], ecx ; mov  [r8], edx ; ret ; (1 found)
0x4a04: mov  [rbx], edx ; ret ; (2 found)
0x7d3fc: mov  [rcx+0x000000AC], eax ; xor eax, eax ; ret ; (1 found)
0x176e7: mov  [rcx+0x000000B0], 0x00000000 ; ret ; (1 found)
0x2e9cd: mov  [rcx+0x000000D0], eax ; add rsp, 0x30 ; pop rbx ; ret ; (1 found)
0x30c22: mov  [rcx+0x000000FC], eax ; mov qword [rcx+0x00000108], rax ; ret ; (1 found)
0x313d5: mov  [rcx+0x000000FC], edx ; mov  [rcx+0x00000100], r8d ; mov qword [rcx+0x00000108], r9 ; ret ; (1 found)
0x313dc: mov  [rcx+0x00000100], eax ; mov qword [rcx+0x00000108], r9 ; ret ; (1 found)
0x7d3d5: mov  [rcx+0x00000100], eax ; xor eax, eax ; ret ; (1 found)
0x313db: mov  [rcx+0x00000100], r8d ; mov qword [rcx+0x00000108], r9 ; ret ; (1 found)
0x30c29: mov  [rcx+0x00000108], eax ; ret ; (1 found)
0x313e3: mov  [rcx+0x00000108], ecx ; ret ; (1 found)
0x2ea6d: mov  [rcx+0x00000114], edx ; mov  [rcx+0x00000118], r8d ; mov qword [rcx+0x00000120], r9 ; ret ; (1 found)
0x2ea74: mov  [rcx+0x00000118], eax ; mov qword [rcx+0x00000120], r9 ; ret ; (1 found)
0x2ea73: mov  [rcx+0x00000118], r8d ; mov qword [rcx+0x00000120], r9 ; ret ; (1 found)
0x2ea7b: mov  [rcx+0x00000120], ecx ; ret ; (1 found)
0x9e2b: mov  [rcx+0x04], eax ; ret ; (1 found)
0x9e2a: mov  [rcx+0x04], r8d ; ret ; (1 found)
0x82b74: mov  [rcx+0x06], ecx ; ret ; (1 found)
0x41c33: mov  [rcx+0x08], eax ; lock or  [rsp+0x00], 0x00000000 ; ret ; (1 found)
0x7767b: mov  [rcx+0x08], ebx ; mov  [rax], r9d ; mov eax, r11d ; ret ; (1 found)
0x11749: mov  [rcx+0x10], eax ; add rsp, 0x28 ; ret ; (1 found)
0x49c5e: mov  [rcx+0x10], eax ; mov  [rcx+0x14], 0x00000001 ; xor eax, eax ; ret ; (1 found)
0x4acf: mov  [rcx+0x10], eax ; ret ; (2 found)
0x467f8: mov  [rcx+0x10], ecx ; add rsp, 0x28 ; ret ; (1 found)
0x1211f: mov  [rcx+0x10], edx ; add rsp, 0x28 ; ret ; (1 found)
0x4aae: mov  [rcx+0x10], edx ; ret ; (3 found)
0x49c61: mov  [rcx+0x14], 0x00000001 ; xor eax, eax ; ret ; (1 found)
0x11c72: mov  [rcx+0x14], eax ; add rsp, 0x28 ; ret ; (1 found)
0x477ea: mov  [rcx+0x14], eax ; ret ; (1 found)
0x7b4b5: mov  [rcx+0x18], eax ; lock or  [rsp+0x00], 0x00000000 ; ret ; (2 found)
0x49a5: mov  [rcx+0x20], eax ; ret ; (1 found)
0x78166: mov  [rcx+0x30], eax ; mov eax, edx ; ret ; (1 found)
0x1544b: mov  [rcx+0x3A], eax ; ret ; (1 found)
0x126be: mov  [rcx+0x68], eax ; ret ; (1 found)
0x12633: mov  [rcx+0x6C], eax ; ret ; (1 found)
0x14fbf: mov  [rcx+0x74], eax ; xor eax, eax ; ret ; (1 found)
0x177a7: mov  [rcx+r9], eax ; mov eax, 0x00000002 ; ret ; (1 found)
0x177c5: mov  [rcx+r9], eax ; mov eax, 0x00000004 ; ret ; (1 found)
0x17c82: mov  [rcx+rax-0x08], edx ; ret ; (1 found)
0x177a8: mov  [rcx+rcx], eax ; mov eax, 0x00000002 ; ret ; (1 found)
0x177c6: mov  [rcx+rcx], eax ; mov eax, 0x00000004 ; ret ; (1 found)
0x16df3: mov  [rcx], 0x00000001 ; mov al, 0x01 ; mov qword [r8], rcx ; ret ; (1 found)
0x2fc19: mov  [rcx], 0x00000001 ; xor eax, eax ; ret ; (1 found)
0x4810: mov  [rcx], 0x00000008 ; xor eax, eax ; ret ; (1 found)
0x7a27d: mov  [rcx], 0x00000018 ; mov eax, edx ; add rsp, 0x38 ; ret ; (1 found)
0x8c683: mov  [rcx], eax ; add rsp, 0x38 ; ret ; (1 found)
0x9e28: mov  [rcx], eax ; mov  [rcx+0x04], r8d ; ret ; (1 found)
0x3b011: mov  [rcx], eax ; mov al, 0x01 ; ret ; (1 found)
0x15029: mov  [rcx], eax ; mov eax, 0x00000002 ; ret ; (1 found)
0x40f8e: mov  [rcx], eax ; mov eax, 0x00000004 ; ret ; (1 found)
0x45d3: mov  [rcx], eax ; mov eax, 0xC00000BB ; ret ; (1 found)
0x75138: mov  [rcx], eax ; xor eax, eax ; ret ; (5 found)
0x4497: mov  [rcx], ecx ; mov  [r10], edx ; pop rbx ; ret ; (1 found)
0x3eaed: mov  [rcx], ecx ; mov al, 0x01 ; ret ; (1 found)
0x47f0: mov  [rcx], edx ; lock or  [rsp+0x00], 0x00000000 ; ret ; (2 found)
0x23e66: mov  [rcx], edx ; ret ; (1 found)
0x3e710: mov  [rdi+0x10], eax ; add rsp, 0x20 ; pop rdi ; ret ; (1 found)
0x4714d: mov  [rdi+0x10], eax ; mov rdi, qword [rsp+0x18] ; ret ; (1 found)
0x4714c: mov  [rdi+0x10], r8d ; mov rdi, qword [rsp+0x18] ; ret ; (1 found)
0x4600f: mov  [rdi+0x58], edx ; add rsp, 0x20 ; pop rdi ; ret ; (1 found)
0x126a0: mov  [rdi+0x6C], eax ; add rsp, 0x20 ; pop rdi ; ret ; (1 found)
0x1269f: mov  [rdi+0x6C], r8d ; add rsp, 0x20 ; pop rdi ; ret ; (1 found)
0x80dc0: mov  [rdi], 0x00000158 ; add rsp, 0x20 ; pop rdi ; ret ; (1 found)
0x1191b: mov  [rdi], eax ; add byte [rax], al ; add rsp, 0x28 ; ret ; (1 found)
0x7a138: mov  [rdx+0x08], 0x00000048 ; mov  [r8], 0x00000010 ; ret ; (1 found)
0x437d: mov  [rdx+0x08], edx ; xor eax, eax ; ret ; (1 found)
0x437c: mov  [rdx+0x08], r10d ; xor eax, eax ; ret ; (1 found)
0x477b3: mov  [rdx+0x10], eax ; add rsp, 0x20 ; pop rbx ; ret ; (1 found)
0x465eb: mov  [rdx+0x10], eax ; ret ; (1 found)
0x14f42: mov  [rdx+0x14], eax ; ret ; (1 found)
0x235db: mov  [rdx+0x14], eax ; xor eax, eax ; ret ; (1 found)
0x235da: mov  [rdx+0x14], r8d ; xor eax, eax ; ret ; (1 found)
0x780f9: mov  [rdx+0x20], ecx ; xor eax, eax ; add rsp, 0x28 ; ret ; (1 found)
0x7b489: mov  [rdx+0x38], eax ; lock or  [rsp+0x00], r8d ; ret ; (1 found)
0x83bd3: mov  [rdx+0x3C], ecx ; lock or  [rsp+0x00], r10d ; xor eax, eax ; ret ; (1 found)
0x83bd2: mov  [rdx+0x3C], r9d ; lock or  [rsp+0x00], r10d ; xor eax, eax ; ret ; (1 found)
0x1299a: mov  [rdx+0x78], ecx ; ret ; (1 found)
0x446e: mov  [rdx+rax*8], 0x00000002 ; ret ; (2 found)
0x8df78: mov  [rdx], 0x00000004 ; ret ; (1 found)
0x16f86: mov  [rdx], 0x000003FF ; mov al, 0x01 ; ret ; (1 found)
0x3c0b4: mov  [rdx], eax ; mov eax,  [rcx+0x000000E0] ; ret ; (1 found)
0x17749: mov  [rdx], eax ; mov eax, 0x00000002 ; ret ; (1 found)
0x17767: mov  [rdx], eax ; mov eax, 0x00000004 ; ret ; (1 found)
0x46645: mov  [rdx], eax ; ret ; (2 found)
0x77553: mov  [rdx], eax ; xor eax, eax ; ret ; (3 found)
0x7819b: mov  [rdx], ecx ; add rsp, 0x28 ; ret ; (1 found)
0x4a01: mov  [rdx], ecx ; mov  [r11], edx ; ret ; (1 found)
0x7a136: mov  [rdx], ecx ; mov  [rdx+0x08], 0x00000048 ; mov  [r8], 0x00000010 ; ret ; (1 found)
0x5dd7: mov  [rdx], ecx ; mov rbx, qword [rsp+0x08] ; mov al, r8L ; ret ; (1 found)
0x7bc2d: mov  [rdx], ecx ; ret ; (4 found)
0x449a: mov  [rdx], edx ; pop rbx ; ret ; (1 found)
0x16e76: mov  [rdx], r8d ; xor eax, eax ; ret ; (1 found)
0x253c2: mov  [rsi], ebx ; mov r14, qword [rsp+0x20] ; ret ; (1 found)
0x174a: mov  [rsi], edx ; add rsp, 0x20 ; pop rsi ; ret ; (1 found)
0x8d91: mov  [rsi], edx ; mov rsi, qword [rsp+0x10] ; mov  [r8], r9d ; ret ; (1 found)
0x8d90: mov  [rsi], r10d ; mov rsi, qword [rsp+0x10] ; mov  [r8], r9d ; ret ; (1 found)
0xc0ae: mov  [rsp+0x20], ecx ; mov rcx, rbx ; mov rax, qword [rax+0x18] ; call rax ; (1 found)
0x2b1b1: mov  [rsp+0x20], ecx ; mov rcx, rbx ; mov rax, qword [rax+0x28] ; call rax ; (1 found)
0x819cc: mov ah, 0x2D ; cld ; call qword [rax-0x0033CB17] ; (1 found)
0x8519d: mov ah, 0x48 ; add esp, 0x30 ; pop rbx ; ret ; (1 found)
0x1b502: mov ah, 0xFE ; call qword [rax-0x01483017] ; (1 found)
0x75f03: mov al, 0x00 ; add byte [rax], al ; pop rbp ; ret ; (2 found)
0x499bb: mov al, 0x01 ; add byte [rax+0x3B], cl ; ret ; (1 found)
0x31cc1: mov al, 0x01 ; add rsp, 0x20 ; pop rbx ; ret ; (2 found)
0x164a4: mov al, 0x01 ; add rsp, 0x28 ; ret ; (9 found)
0xed5d: mov al, 0x01 ; add rsp, 0x30 ; pop rbp ; ret ; (1 found)
0x14ef1: mov al, 0x01 ; add rsp, 0x30 ; pop rbx ; ret ; (1 found)
0x9491: mov al, 0x01 ; add rsp, 0x38 ; ret ; (1 found)
0x7a4de: mov al, 0x01 ; mov al, r8L ; ret ; (2 found)
0x2efb8: mov al, 0x01 ; mov byte [rdx], al ; xor eax, eax ; ret ; (1 found)
0x16df9: mov al, 0x01 ; mov qword [r8], rcx ; ret ; (1 found)
0x43fcc: mov al, 0x01 ; mov rbx, qword [rsp+0x08] ; mov rdi, qword [rsp+0x10] ; ret ; (1 found)
0x75190: mov al, 0x01 ; ret ; (19 found)
0x29840: mov al, 0x74 ; or cl, byte [rax-0x75] ; add byte [rax+0x3B], cl ; ret ; (1 found)
0x9c83: mov al, 0xFF ; out dx, al ; xor eax, eax ; ret ; (1 found)
0x68f0: mov al, al ; add byte [rax], al ; add byte [rcx-0x0A], al ; retn 0x0F02 ; (1 found)
0x12c8c: mov al, al ; add rsp, 0x38 ; ret ; (1 found)
0x4b61: mov al, al ; out dx, al ; ret ; (1 found)
0x41c11: mov al, al ; out dx, al ; xor eax, eax ; ret ; (1 found)
0x8ff46: mov al, al ; pop r14 ; ret ; (1 found)
0x7a4e2: mov al, al ; ret ; (4 found)
0x485f5: mov al, bh ; add rsp, 0x20 ; pop rdi ; ret ; (1 found)
0x383a: mov al, bl ; add rsp, 0x20 ; pop rbx ; ret ; (2 found)
0x401b5: mov al, bl ; ret ; (1 found)
0x7d3b0: mov al, byte [0x0000000000067C08] ; ret ; (1 found)
0x7e832: mov al, byte [0x0000000000067C6A] ; add rsp, 0x28 ; ret ; (1 found)
0x17000: mov al, byte [0x0000000000067D18] ; ret ; (1 found)
0x3306c: mov al, byte [0x0090C48148000000] ; add byte [rax], al ; pop rdi ; ret ; (1 found)
0x1c021: mov al, byte [0x0D3B404D8BFFFEC3] ; retn 0x04BC ; (1 found)
0x1bf4c: mov al, byte [0x37880FC085000076] ; retn 0xFFFE ; (1 found)
0x2ae4f: mov al, byte [0x55E8CC3348000001] ; retn 0xFFFE ; (1 found)
0xb430: mov al, byte [0x5F5C415F41000000] ; pop rsi ; pop rbp ; ret ; (1 found)
0x2ad6c: mov al, byte [0xC28B4D38244C8D4C] ; mov rax, qword [rax+0x18] ; call rax ; (1 found)
0x1dc06: mov al, byte [0xEB65832F458BFFFF] ; add byte [rbx-0x740010B3], al ; iretq ; (2 found)
0xdccc: mov al, byte [0xFFFFF0FF000000E0] ; add rsp, 0x38 ; ret ; (1 found)
0x8ba4: mov al, byte [r10+0x0000008D] ; mov byte [r9], al ; mov al, 0x01 ; ret ; (1 found)
0x32d5d: mov al, byte [r9+0x10] ; mov rbx, qword [rsp+0x08] ; mov byte [r9+0x13], al ; ret ; (1 found)
0x46c9: mov al, byte [rax+0x000000D6] ; ret ; (1 found)
0x12943: mov al, byte [rax] ; add rsp, 0x28 ; ret ; (1 found)
0x32d5e: mov al, byte [rcx+0x10] ; mov rbx, qword [rsp+0x08] ; mov byte [r9+0x13], al ; ret ; (1 found)
0x17723: mov al, byte [rcx+r9] ; mov byte [rdx], al ; mov eax, 0x00000001 ; ret ; (1 found)
0x17724: mov al, byte [rcx+rcx] ; mov byte [rdx], al ; mov eax, 0x00000001 ; ret ; (1 found)
0x486d2: mov al, byte [rcx] ; mov byte [r8], al ; xor eax, eax ; ret ; (1 found)
0x8ba5: mov al, byte [rdx+0x0000008D] ; mov byte [r9], al ; mov al, 0x01 ; ret ; (1 found)
0x82b17: mov al, byte [rdx+0x09] ; mov byte [r9+0x04], al ; ret ; (1 found)
0x10d37: mov al, cl ; add byte [rax], al ; add byte [rbp-0x1E], dh ; ret ; (1 found)
0x4a294: mov al, cl ; mov rdi, qword [rsp+0x10] ; ret ; (1 found)
0x76f6a: mov al, cl ; ret ; (2 found)
0x485f4: mov al, dil ; add rsp, 0x20 ; pop rdi ; ret ; (1 found)
0x4598e: mov al, dl ; add rsp, 0x28 ; ret ; (1 found)
0x3f712: mov al, dl ; ret ; (1 found)
0x401b4: mov al, r11L ; ret ; (1 found)
0x12c8b: mov al, r8L ; add rsp, 0x38 ; ret ; (1 found)
0x4b60: mov al, r8L ; out dx, al ; ret ; (1 found)
0x41c10: mov al, r8L ; out dx, al ; xor eax, eax ; ret ; (1 found)
0x8ff45: mov al, r8L ; pop r14 ; ret ; (1 found)
0x7a4e1: mov al, r8L ; ret ; (4 found)
0x4a293: mov al, r9L ; mov rdi, qword [rsp+0x10] ; ret ; (1 found)
0x17743: mov ax, word [rcx+r9] ; mov word [rdx], ax ; mov eax, 0x00000002 ; ret ; (1 found)
0x12a22: mov bh, 0x00 ; add rsp, 0x28 ; ret ; (1 found)
0x47a1: mov bh, 0x01 ; ret ; (1 found)
0x12631: mov bh, 0x02 ; mov  [rcx+0x6C], eax ; ret ; (1 found)
0x16e3a: mov bh, 0x0C ; xor rax, rax ; mov  [r8], ecx ; ret ; (1 found)
0x8ba00: mov bh, 0x41 ; add al, 0x49 ; mov  [rax], eax ; ret ; (1 found)
0x11c6f: mov bh, 0x41 ; push 0x48144189 ; add esp, 0x28 ; ret ; (1 found)
0x15447: mov bh, 0x41 ; push rdx ; mov word [rcx+0x3A], ax ; ret ; (1 found)
0x4a3ba: mov bh, 0x42 ; add cl, byte [rax+0x03] ; retn 0x8D48 ; (1 found)
0x3db74: mov bh, 0x42 ; or al, 0x3B ; ret ; (2 found)
0x12a55: mov bh, 0x49 ; cmp ch, al ; ret ; (1 found)
0x36480: mov bh, 0x97 ; retn 0x0001 ; (1 found)
0x4776: mov bh, 0xC0 ; ret ; (1 found)
0x32e05: mov bh, 0xD0 ; lea eax,  [rdx+rdx] ; cmove eax, edx ; ret ; (1 found)
0x4751: mov bh, 0xD1 ; in al, dx ; movzx eax, al ; ret ; (1 found)
0x4771: mov bh, 0xD1 ; in ax, dx ; movzx eax, ax ; ret ; (1 found)
0x4761: mov bh, 0xD1 ; in eax, dx ; ret ; (1 found)
0x47b3: mov bh, 0xD1 ; out dx, al ; ret ; (1 found)
0x8ec9: mov bh, 0xD1 ; out dx, al ; xor eax, eax ; ret ; (1 found)
0x47d3: mov bh, 0xD1 ; out dx, ax ; ret ; (1 found)
0x47c3: mov bh, 0xD1 ; out dx, eax ; ret ; (1 found)
0x1b746: mov bh, 0xE8 ; cwde ; retn 0xFFFE ; (1 found)
0x401ac: mov bl, 0x01 ; mov rbx, qword [rsp+0x08] ; mov al, r11L ; ret ; (2 found)
0x19860: mov bl, ch ; add byte [rax], al ; add byte [rbx-0x74B32FB3], cl ; ret ; (1 found)
0x1cccc: mov byte [0x0000000000065944], 0x00 ; ret ; (1 found)
0x355d4: mov byte [0x00000000000659CC], 0x01 ; add rsp, 0x30 ; pop rbx ; ret ; (1 found)
0x3062f: mov byte [0x0000000000065C80], 0x00 ; add rsp, 0x28 ; ret ; (1 found)
0x4600: mov byte [0x0000000000066D60], 0x01 ; ret ; (1 found)
0x3572a: mov byte [0x0000000000066D70], 0x01 ; add rsp, 0x20 ; pop rbx ; ret ; (1 found)
0x88090: mov byte [0x0000000000067BE8], 0x01 ; ret ; (1 found)
0x759e6: mov byte [0x0000000000067D78], 0x01 ; add rsp, 0x48 ; ret ; (1 found)
0x1641b: mov byte [0x0000000000067F30], 0x00 ; xor eax, eax ; ret ; (1 found)
0x9018a: mov byte [0x000000000006A088], al ; add rsp, 0x28 ; ret ; (2 found)
0x45b14: mov byte [0x000000000006A30C], bl ; add rsp, 0x20 ; pop rbx ; ret ; (1 found)
0x31d6b: mov byte [0x245C8B4801B0FFFD], al ; add rsp, 0x30 ; pop rdi ; ret ; (1 found)
0x3cc22: mov byte [0x5B30C48348000001], al ; ret ; (1 found)
0x3e806: mov byte [0x8B7024748B480000], al ; ret ; (1 found)
0x32c2a: mov byte [r10+0x15], cl ; ret ; (1 found)
0x9329: mov byte [r8], al ; xor eax, eax ; ret ; (2 found)
0x82b1a: mov byte [r9+0x04], al ; ret ; (1 found)
0x82b13: mov byte [r9+0x05], al ; mov al, byte [rdx+0x09] ; mov byte [r9+0x04], al ; ret ; (1 found)
0x32d66: mov byte [r9+0x13], al ; ret ; (1 found)
0x8bab: mov byte [r9], al ; mov al, 0x01 ; ret ; (1 found)
0x40f56: mov byte [r9], al ; mov eax, 0x00000001 ; ret ; (1 found)
0x32562: mov byte [r9], al ; ret ; (1 found)
0x82b3e: mov byte [r9], cl ; ret ; (1 found)
0x46e9: mov byte [rax+0x000000D6], cl ; ret ; (1 found)
0x8a138: mov byte [rax+0x48000000], bl ; add esp, 0x28 ; ret ; (1 found)
0x2edb6: mov byte [rax+r10+0x000911E0], 0x0F ; mov  [rax+r10+0x000911E1], edx ; ret ; (1 found)
0x2edb7: mov byte [rax+rdx+0x000911E0], 0x0F ; mov  [rax+r10+0x000911E1], edx ; ret ; (1 found)
0xaa22: mov byte [rax], 0x00 ; add rsp, 0x20 ; pop rbx ; ret ; (1 found)
0x8bf66: mov byte [rax], al ; add byte [rax], al ; ret ; (4 found)
0x932a: mov byte [rax], al ; xor eax, eax ; ret ; (2 found)
0x124f7: mov byte [rax], dl ; ret ; (1 found)
0x2ff53: mov byte [rbp+0x03], bl ; add byte [rax], al ; setne al ; ret ; (1 found)
0x3263c: mov byte [rbx+0x28], 0x00 ; add rsp, 0x30 ; pop rbx ; ret ; (1 found)
0x32609: mov byte [rbx], 0x01 ; add rsp, 0x50 ; pop rbx ; ret ; (1 found)
0x16fe9: mov byte [rbx], dh ; ror byte [rcx+0x25B8C30A], 0x02 ; add al, al ; ret ; (1 found)
0x14fb8: mov byte [rcx+0x0000008C], 0x01 ; mov  [rcx+0x74], eax ; xor eax, eax ; ret ; (1 found)
0x296f0: mov byte [rcx+0x000000D8], 0x00 ; add rsp, 0x28 ; ret ; (1 found)
0x82b1b: mov byte [rcx+0x04], al ; ret ; (1 found)
0x82b14: mov byte [rcx+0x05], al ; mov al, byte [rdx+0x09] ; mov byte [r9+0x04], al ; ret ; (1 found)
0x20a0e: mov byte [rcx+0x0F], 0x42 ; ret ; (1 found)
0x32d67: mov byte [rcx+0x13], al ; ret ; (1 found)
0x4663f: mov byte [rcx+0x18], al ; or eax, 0x01 ; mov  [rdx], eax ; ret ; (2 found)
0x4663e: mov byte [rcx+0x18], r8L ; or eax, 0x01 ; mov  [rdx], eax ; ret ; (2 found)
0x17785: mov byte [rcx+r9], al ; mov eax, 0x00000001 ; ret ; (1 found)
0x17786: mov byte [rcx+rcx], al ; mov eax, 0x00000001 ; ret ; (1 found)
0x48715: mov byte [rcx], al ; lock or  [rsp+0x00], 0x00000000 ; xor eax, eax ; ret ; (1 found)
0x8bac: mov byte [rcx], al ; mov al, 0x01 ; ret ; (1 found)
0x40f57: mov byte [rcx], al ; mov eax, 0x00000001 ; ret ; (1 found)
0x32563: mov byte [rcx], al ; ret ; (1 found)
0x82b3f: mov byte [rcx], cl ; ret ; (1 found)
0x47e0: mov byte [rcx], dl ; lock or  [rsp+0x00], 0x00000000 ; ret ; (1 found)
0x49b0: mov byte [rcx], dl ; ret ; (1 found)
0xc14c: mov byte [rdi+0x18], al ; add  [rax], eax ; ret ; (1 found)
0x1bf53: mov byte [rdi], dh ; retn 0xFFFE ; (1 found)
0x32c2b: mov byte [rdx+0x15], cl ; ret ; (1 found)
0x17727: mov byte [rdx], al ; mov eax, 0x00000001 ; ret ; (1 found)
0x2efba: mov byte [rdx], al ; xor eax, eax ; ret ; (1 found)
0x7e075: mov byte [rsi-0x00FFFFCC], dl ; ret ; (1 found)
0x15b9c: mov byte [rsp+0x32], al ; mov eax,  [rsp+0x30] ; add rsp, 0x28 ; ret ; (1 found)
0x76f68: mov cl, 0x03 ; mov al, cl ; ret ; (1 found)
0x1540b: mov cl, 0xC4 ; add eax, 0x0FC08500 ; test byte [rdx], dl ; retn 0x0000 ; (1 found)
0x17413: mov cr2, rax ; ret ; (1 found)
0x13d9a: mov dh, 0x00 ; add byte [rax], al ; add rsp, 0x28 ; ret ; (1 found)
0x4781: mov dh, 0x01 ; ret ; (1 found)
0x126bc: mov dh, 0x02 ; mov  [rcx+0x68], eax ; ret ; (1 found)
0x1a4b: mov dh, 0x3D ; jmp qword [rcx+0x06] ; (1 found)
0x8aa5a: mov dh, 0x40 ; cmovno edi,  [rbx] ; retn 0x0F41 ; (1 found)
0x8ffb9: mov dh, 0x41 ; add  [rbx], edi ; retn 0x0273 ; (1 found)
0x487c1: mov dh, 0x47 ; and al, 0xFF ; ret ; (2 found)
0x126e9: mov dh, 0xC0 ; add rsp, 0x28 ; ret ; (1 found)
0x77551: mov dh, 0xC0 ; mov  [rdx], eax ; xor eax, eax ; ret ; (1 found)
0x4755: mov dh, 0xC0 ; ret ; (1 found)
0x82b6d: mov dh, 0xC8 ; or cx, ax ; mov word [r9+0x06], cx ; ret ; (1 found)
0x46f2a: mov dh, 0xFC ; jmp qword [rsi-0x77] ; (1 found)
0x1b745: mov dil, 0xE8 ; cwde ; retn 0xFFFE ; (1 found)
0x841c3: mov dl, 0xEB ; adc cl, byte [rax-0x007F] ; retn 0x0098 ; (1 found)
0x7e87: mov dl, 0xFF ; dec  [rbx-0x3B7CB73D] ; pop rbx ; ret ; (1 found)
0x45988: mov dl, byte [0x000000000006A30C] ; mov al, dl ; add rsp, 0x28 ; ret ; (1 found)
0x2aaa: mov dl, byte [rcx+0x06] ; add bh, dh ; retn 0x0000 ; (1 found)
0x1c38a: mov dl, dh ; retn 0xFFFE ; (1 found)
0x782a0: mov eax,  [0x00000000000648B0] ; shr eax, 0x03 ; and eax, 0x01 ; ret ; (1 found)
0x4961: mov eax,  [0x0000000000065798] ; mov eax,  [rax+0x000000F0] ; ret ; (1 found)
0x44dc: mov eax,  [0x0000000000065984] ; ret ; (1 found)
0x4701: mov eax,  [0x0000000000065C90] ; ret ; (1 found)
0x5313: mov eax,  [0x0000000000065D58] ; mov qword [0x0000000000065E18], rax ; add rsp, 0x28 ; ret ; (1 found)
0x46b1: mov eax,  [0x0000000000065DF8] ; ret ; (1 found)
0x2e6b4: mov eax,  [0x00000000000674C8] ; ret ; (1 found)
0x2a6e5: mov eax,  [0x0000000000067708] ; ret ; (1 found)
0x2abd: mov eax,  [0x0000000000067C38] ; mov  [rax+0x00000300], edx ; ret ; (1 found)
0x4861: mov eax,  [0x0000000000067C38] ; movsxd r8, rcx ; mov  [r8+rax], edx ; ret ; (1 found)
0x4841: mov eax,  [0x0000000000067C38] ; movsxd rdx, rcx ; mov eax,  [rdx+rax] ; ret ; (1 found)
0x4511: mov eax,  [0x0000000000067CA8] ; ret ; (1 found)
0x13d3f: mov eax,  [0x0000000000067CB0] ; add rsp, 0x48 ; ret ; (1 found)
0x2fee5: mov eax,  [0x000000000006A078] ; ret ; (1 found)
0x88071: mov eax,  [0x0000000000071320] ; lea rcx, qword [0x000000000007E4C0] ; mov qword [rax+0x00000130], rcx ; ret ; (1 found)
0x2b34b: mov eax,  [0x0000000000074050] ; lea rcx, qword [rbp-0x28] ; mov rax, qword [rax+0x08] ; call rax ; (1 found)
0x46c2: mov eax,  [0x00000018] ; mov al, byte [rax+0x000000D6] ; ret ; (1 found)
0x46e2: mov eax,  [0x00000018] ; mov byte [rax+0x000000D6], cl ; ret ; (1 found)
0x181a7: mov eax,  [0x000001A4] ; imul eax,  [rcx+0x50] ; add rax, qword [rcx+0x48] ; ret ; (1 found)
0x7a1bb: mov eax,  [0xF00A7401A8FFFEFE] ; dec  [0x000000000006A060] ; xor eax, eax ; ret ; (1 found)
0x181a6: mov eax,  [gs:0x000001A4] ; imul eax,  [rcx+0x50] ; add rax, qword [rcx+0x48] ; ret ; (1 found)
0xc10c: mov eax,  [r8+rax*8+0x08] ; ret ; (1 found)
0x235d4: mov eax,  [rax+0x000000A4] ; mov  [rdx+0x14], r8d ; xor eax, eax ; ret ; (1 found)
0x2fb68: mov eax,  [rax+0x000000C0] ; mov qword [rcx], rax ; xor eax, eax ; ret ; (1 found)
0x108c7: mov eax,  [rax+0x000000CC] ; shr eax, 0x08 ; and al, 0x01 ; ret ; (1 found)
0x4967: mov eax,  [rax+0x000000F0] ; ret ; (1 found)
0x2b356: mov eax,  [rax+0x08] ; call rax ; (1 found)
0x2b124: mov eax,  [rax+0x10] ; call rax ; (1 found)
0xc0b6: mov eax,  [rax+0x18] ; call rax ; (2 found)
0x2ac16: mov eax,  [rax+0x20] ; call rax ; (1 found)
0x2b1b9: mov eax,  [rax+0x28] ; call rax ; (1 found)
0x2b461: mov eax,  [rax+0x30] ; call rax ; (1 found)
0x345a7: mov eax,  [rax+0x33000006] ; ror byte [rdi], cl ; xor bh, bh ; ret ; (1 found)
0x2b028: mov eax,  [rax+0x38] ; call rax ; (1 found)
0x2b0a3: mov eax,  [rax+0x40] ; call rax ; (1 found)
0xc10d: mov eax,  [rax+rax*8+0x08] ; ret ; (1 found)
0x12a5d: mov eax,  [rax] ; add rsp, 0x28 ; ret ; (1 found)
0x2aee7: mov eax,  [rax] ; call rax ; (2 found)
0x48f4: mov eax,  [rax] ; ret ; (1 found)
0x12611: mov eax,  [rbx+0x6C] ; add rsp, 0x20 ; pop rbx ; ret ; (1 found)
0x3c0b6: mov eax,  [rcx+0x000000E0] ; ret ; (1 found)
0x4591: mov eax,  [rcx+0x000001F0] ; ret ; (1 found)
0x48f1: mov eax,  [rcx+0x08] ; mov eax,  [rax] ; ret ; (1 found)
0x27f22: mov eax,  [rcx+0x10] ; lea rax, qword [rax+rcx*8] ; ret ; (1 found)
0x4646d: mov eax,  [rcx+0x10] ; or eax, 0x10 ; mov  [rcx+0x10], eax ; ret ; (1 found)
0x1821: mov eax,  [rcx+0x48] ; ret ; (1 found)
0x17763: mov eax,  [rcx+r9] ; mov  [rdx], eax ; mov eax, 0x00000004 ; ret ; (1 found)
0x17744: mov eax,  [rcx+r9] ; mov word [rdx], ax ; mov eax, 0x00000002 ; ret ; (1 found)
0x17764: mov eax,  [rcx+rcx] ; mov  [rdx], eax ; mov eax, 0x00000004 ; ret ; (1 found)
0x17745: mov eax,  [rcx+rcx] ; mov word [rdx], ax ; mov eax, 0x00000002 ; ret ; (1 found)
0x3758c: mov eax,  [rcx-0x01] ; retn 0x3B44 ; (1 found)
0x4790: mov eax,  [rcx] ; ret ; (1 found)
0x17437: mov eax,  [rdi+0x000000A0] ; mov rdi, qword [rdi+0x78] ; jmp rcx ; (1 found)
0x7d3f9: mov eax,  [rdx+0x08] ; mov  [rcx+0x000000AC], eax ; xor eax, eax ; ret ; (1 found)
0x7d3d2: mov eax,  [rdx+0x10] ; mov  [rcx+0x00000100], eax ; xor eax, eax ; ret ; (1 found)
0x484a: mov eax,  [rdx+rax] ; ret ; (1 found)
0x48c1: mov eax,  [rsp+0x28] ; mov qword [rax], r8 ; mov al, 0x01 ; ret ; (1 found)
0xbe81: mov eax,  [rsp+0x30] ; add rsp, 0x20 ; pop rbx ; ret ; (1 found)
0x15ba0: mov eax,  [rsp+0x30] ; add rsp, 0x28 ; ret ; (2 found)
0x37e4b: mov eax,  [rsp+0x30] ; mov qword [rax], r11 ; xor al, al ; ret ; (1 found)
0x37e7a: mov eax,  [rsp+0x30] ; mov qword [rax], rcx ; mov al, 0x01 ; ret ; (1 found)
0x79489: mov eax,  [rsp+0x38] ; mov  [rax], r8d ; mov eax, 0xC0000023 ; ret ; (1 found)
0x15417: mov eax,  [rsp+0x48] ; add rsp, 0x30 ; pop rbx ; ret ; (1 found)
0xba65: mov eax,  [rsp+0x60] ; add rsp, 0x58 ; ret ; (2 found)
0x111f1: mov eax, 0x00000001 ; add rsp, 0x20 ; pop rbx ; ret ; (17 found)
0x462a9: mov eax, 0x00000001 ; add rsp, 0x20 ; pop rdi ; ret ; (1 found)
0x11597: mov eax, 0x00000001 ; add rsp, 0x28 ; ret ; (6 found)
0x751b0: mov eax, 0x00000001 ; ret ; (9 found)
0x1502b: mov eax, 0x00000002 ; ret ; (4 found)
0x20d3c: mov eax, 0x00000003 ; ret ; (1 found)
0x17769: mov eax, 0x00000004 ; ret ; (5 found)
0x2a969: mov eax, 0x00000010 ; add rsp, 0x20 ; pop rbx ; ret ; (1 found)
0x50b0: mov eax, 0x000000E4 ; or al, 0x74 ; add eax, 0x28C48348 ; ret ; (1 found)
0x22500: mov eax, 0x000001AD ; add byte [rdi], cl ; retn 0x05EB ; (1 found)
0x20d30: mov eax, 0x00001000 ; ret ; (1 found)
0x163e0: mov eax, 0x01B00000 ; ret ; (1 found)
0x2b392: mov eax, 0x05D7BEA7 ; retn 0x109E ; (1 found)
0x11824: mov eax, 0x4800000C ; add esp, 0x20 ; pop rbx ; ret ; (1 found)
0x32884: mov eax, 0x48FFFE53 ; add esp, 0x20 ; pop rbx ; ret ; (1 found)
0x2644f: mov eax, 0xC0000001 ; add rsp, 0x28 ; ret ; (2 found)
0x357aa: mov eax, 0xC0000001 ; add rsp, 0x40 ; pop rbx ; ret ; (1 found)
0x1c5e9: mov eax, 0xC0000001 ; ret ; (7 found)
0x2b055: mov eax, 0xC0000002 ; add rsp, 0x20 ; pop rbx ; ret ; (2 found)
0x7b3c0: mov eax, 0xC0000002 ; add rsp, 0x28 ; ret ; (3 found)
0x2b1ea: mov eax, 0xC0000002 ; add rsp, 0x30 ; pop rbx ; ret ; (1 found)
0x7b646: mov eax, 0xC0000002 ; add rsp, 0x58 ; ret ; (1 found)
0x4830: mov eax, 0xC0000002 ; ret ; (1 found)
0x90072: mov eax, 0xC0000004 ; mov  [r8], r9d ; ret ; (1 found)
0x23487: mov eax, 0xC000000D ; add rsp, 0x0000000000000080 ; pop rbx ; ret ; (1 found)
0x23662: mov eax, 0xC000000D ; add rsp, 0x0000000000000088 ; ret ; (1 found)
0x14064: mov eax, 0xC000000D ; add rsp, 0x20 ; pop rbx ; ret ; (2 found)
0x7b0b1: mov eax, 0xC000000D ; add rsp, 0x28 ; ret ; (1 found)
0x79496: mov eax, 0xC000000D ; ret ; (9 found)
0x847e8: mov eax, 0xC000000E ; add rsp, 0x28 ; ret ; (2 found)
0x79490: mov eax, 0xC0000023 ; ret ; (2 found)
0x7a195: mov eax, 0xC000009A ; ret ; (2 found)
0x371ff: mov eax, 0xC00000BB ; add rsp, 0x20 ; pop rbx ; ret ; (1 found)
0x2c0c3: mov eax, 0xC00000BB ; add rsp, 0x28 ; ret ; (1 found)
0x42e3d: mov eax, 0xC00000BB ; add rsp, 0x38 ; ret ; (1 found)
0x2d20e: mov eax, 0xC00000BB ; mov ecx, 0xC0000001 ; cmovne eax, ecx ; ret ; (1 found)
0x751a0: mov eax, 0xC00000BB ; ret ; (9 found)
0x45248: mov eax, 0xC0000225 ; add rsp, 0x20 ; pop rbx ; ret ; (1 found)
0x8ba68: mov eax, 0xC0000225 ; add rsp, 0x38 ; ret ; (1 found)
0x3fc98: mov eax, 0xC0000225 ; mov rbx, qword [rsp+0x08] ; mov rdi, qword [rsp+0x10] ; ret ; (1 found)
0x77549: mov eax, 0xC0000225 ; ret ; (7 found)
0x16fb8: mov eax, 0xFF000000 ; adc eax, 0x0005A8FE ; add rsp, 0x38 ; ret ; (1 found)
0x2c06d: mov eax, 0xFFFFFFFE ; lock xadd  [0x000000000006A060], eax ; mov eax, 0xC0000001 ; ret ; (1 found)
0x1334d: mov eax, eax ; add rax, qword [0x0000000000064DA8] ; ret ; (1 found)
0x461a7: mov eax, eax ; add rsp, 0x20 ; pop rbx ; ret ; (1 found)
0x1682: mov eax, eax ; add rsp, 0x20 ; pop rsi ; ret ; (1 found)
0x114c6: mov eax, eax ; add rsp, 0x28 ; ret ; (2 found)
0x85005: mov eax, eax ; add rsp, 0x38 ; ret ; (2 found)
0x4221a: mov eax, eax ; div r9 ; imul rax, rcx ; ret ; (1 found)
0x15297: mov eax, eax ; out dx, eax ; add rsp, 0x28 ; ret ; (1 found)
0x8eb19: mov eax, eax ; ret ; (9 found)
0x76387: mov eax, ebx ; add rsp, 0x20 ; pop rbx ; ret ; (10 found)
0x75263: mov eax, ebx ; add rsp, 0x30 ; pop rbx ; ret ; (5 found)
0x7e8a: mov eax, ebx ; add rsp, 0x40 ; pop rbx ; ret ; (3 found)
0x15b51: mov eax, ebx ; mov rsi, qword [rsp+0x10] ; mov rdi, qword [rsp+0x18] ; ret ; (1 found)
0x77682: mov eax, ebx ; ret ; (3 found)
0x2ec0a: mov eax, ecx ; add rsp, 0x20 ; pop rbx ; ret ; (1 found)
0x75758: mov eax, ecx ; add rsp, 0x28 ; ret ; (4 found)
0x2b71d: mov eax, ecx ; add rsp, 0x38 ; ret ; (1 found)
0x44da8: mov eax, ecx ; add rsp, 0x48 ; ret ; (1 found)
0xbda2: mov eax, ecx ; div r10 ; add rax, rcx ; ret ; (1 found)
0x42225: mov eax, ecx ; div r9 ; imul rax, r8 ; ret ; (1 found)
0x8f601: mov eax, ecx ; mov rbp, qword [rsp+0x10] ; mov rdi, qword [rsp+0x18] ; ret ; (1 found)
0x8aa89: mov eax, ecx ; mov rdi, qword [rsp+0x10] ; ret ; (1 found)
0x7bc22: mov eax, ecx ; ret ; (10 found)
0x7b376: mov eax, edi ; add rsp, 0x20 ; pop rdi ; ret ; (1 found)
0x49d14: mov eax, edi ; add rsp, 0x30 ; pop rdi ; ret ; (2 found)
0x1295e: mov eax, edx ; add rax, 0x06 ; lea rax, qword [rcx+rax*4] ; ret ; (1 found)
0x6d8d: mov eax, edx ; add rsp, 0x20 ; pop rbx ; ret ; (1 found)
0x35482: mov eax, edx ; add rsp, 0x28 ; ret ; (2 found)
0x300eb: mov eax, edx ; add rsp, 0x30 ; pop rbx ; ret ; (1 found)
0x12f0d: mov eax, edx ; add rsp, 0x30 ; pop rdi ; ret ; (1 found)
0x7a283: mov eax, edx ; add rsp, 0x38 ; ret ; (4 found)
0x2ad73: mov eax, edx ; mov rax, qword [rax+0x18] ; call rax ; (1 found)
0x76caf: mov eax, edx ; mov rsi, qword [rsp+0x10] ; mov rdi, qword [rsp+0x18] ; ret ; (2 found)
0x47b0: mov eax, edx ; movzx edx, cx ; out dx, al ; ret ; (1 found)
0x47d0: mov eax, edx ; movzx edx, cx ; out dx, ax ; ret ; (1 found)
0x47c0: mov eax, edx ; movzx edx, cx ; out dx, eax ; ret ; (1 found)
0x78169: mov eax, edx ; ret ; (3 found)
0x473b: mov eax, edx ; shr rdx, 0x20 ; wrmsr ; ret ; (6 found)
0x15b50: mov eax, r11d ; mov rsi, qword [rsp+0x10] ; mov rdi, qword [rsp+0x18] ; ret ; (1 found)
0x77681: mov eax, r11d ; ret ; (1 found)
0x1334c: mov eax, r8d ; add rax, qword [0x0000000000064DA8] ; ret ; (1 found)
0x461a6: mov eax, r8d ; add rsp, 0x20 ; pop rbx ; ret ; (1 found)
0x114c5: mov eax, r8d ; add rsp, 0x28 ; ret ; (2 found)
0x85004: mov eax, r8d ; add rsp, 0x38 ; ret ; (2 found)
0x15296: mov eax, r8d ; out dx, eax ; add rsp, 0x28 ; ret ; (1 found)
0x8eb18: mov eax, r8d ; ret ; (3 found)
0x2ec09: mov eax, r9d ; add rsp, 0x20 ; pop rbx ; ret ; (1 found)
0x75757: mov eax, r9d ; add rsp, 0x28 ; ret ; (1 found)
0x8f600: mov eax, r9d ; mov rbp, qword [rsp+0x10] ; mov rdi, qword [rsp+0x18] ; ret ; (1 found)
0x8aa88: mov eax, r9d ; mov rdi, qword [rsp+0x10] ; ret ; (1 found)
0xae5c: mov eax, r9d ; ret ; (3 found)
0x213b1: mov ebp,  [rax-0x01] ; call qword [rax-0x00C90417] ; (1 found)
0x1106c: mov ebp,  [rbx+0x20] ; mov rsp, r11 ; pop rbp ; ret ; (1 found)
0x8f604: mov ebp,  [rsp+0x10] ; mov rdi, qword [rsp+0x18] ; ret ; (1 found)
0x90147: mov ebp,  [rsp+0x10] ; mov rsi, qword [rsp+0x18] ; mov rdi, qword [rsp+0x20] ; ret ; (2 found)
0x8f4f3: mov ebp,  [rsp+0x10] ; mov rsi, qword [rsp+0x18] ; ret ; (1 found)
0x2de27: mov ebp,  [rsp+0x38] ; add rsp, 0x20 ; pop rdi ; ret ; (4 found)
0xfad4: mov ebp,  [rsp+0x40] ; add rsp, 0x20 ; pop rdi ; ret ; (1 found)
0x827ab: mov ebp,  [rsp+0x48] ; add rsp, 0x20 ; pop rdi ; ret ; (1 found)
0x89142: mov ebp,  [rsp+0x50] ; add rsp, 0x30 ; pop rdi ; ret ; (1 found)
0xc1df: mov ebp, 0x48FFFF5B ; add esp, 0x48 ; ret ; (1 found)
0x15543: mov ebx,  [rbx+0x10] ; mov rsp, r11 ; pop rdi ; ret ; (1 found)
0x88e8e: mov ebx,  [rsp+0x00000080] ; add rsp, 0x60 ; pop rbp ; ret ; (1 found)
0x2b8f6: mov ebx,  [rsp+0x00000080] ; add rsp, 0x60 ; pop rdi ; ret ; (1 found)
0x76c1c: mov ebx,  [rsp+0x00000080] ; add rsp, 0x70 ; pop rdi ; ret ; (2 found)
0x451b4: mov ebx,  [rsp+0x00000088] ; add rsp, 0x70 ; pop rdi ; ret ; (1 found)
0x7a88f: mov ebx,  [rsp+0x00000090] ; add rsp, 0x0000000000000080 ; pop rdi ; ret ; (4 found)
0x30548: mov ebx,  [rsp+0x00000098] ; add rsp, 0x70 ; pop rdi ; ret ; (1 found)
0x33069: mov ebx,  [rsp+0x000000A0] ; add rsp, 0x0000000000000090 ; pop rdi ; ret ; (1 found)
0x5d60: mov ebx,  [rsp+0x000000B0] ; add rsp, 0x00000000000000A0 ; pop rbp ; ret ; (1 found)
0x75ef9: mov ebx,  [rsp+0x000000D0] ; add rsp, 0x00000000000000B0 ; pop rbp ; ret ; (1 found)
0x8aff5: mov ebx,  [rsp+0x000000D0] ; add rsp, 0x00000000000000C0 ; pop rbp ; ret ; (2 found)
0x10ec1: mov ebx,  [rsp+0x000000E0] ; add rsp, 0x00000000000000D0 ; pop rbp ; ret ; (1 found)
0xe111: mov ebx,  [rsp+0x000000F0] ; add rsp, 0x00000000000000E0 ; pop rbp ; ret ; (1 found)
0x36681: mov ebx,  [rsp+0x000000F0] ; add rsp, 0x00000000000000E0 ; pop rdi ; ret ; (1 found)
0x3072a: mov ebx,  [rsp+0x00000120] ; add rsp, 0x0000000000000110 ; pop rdi ; ret ; (1 found)
0x158b1: mov ebx,  [rsp+0x00000160] ; add rsp, 0x0000000000000150 ; pop rbp ; ret ; (1 found)
0x43e6f: mov ebx,  [rsp+0x00000168] ; add rsp, 0x0000000000000140 ; pop rdi ; ret ; (1 found)
0x35b1b: mov ebx,  [rsp+0x00003050] ; add rsp, 0x0000000000003030 ; pop rbp ; ret ; (1 found)
0x49fc: mov ebx,  [rsp+0x08] ; mov  [r10], ecx ; mov  [r11], edx ; ret ; (1 found)
0x401b0: mov ebx,  [rsp+0x08] ; mov al, r11L ; ret ; (1 found)
0x5dda: mov ebx,  [rsp+0x08] ; mov al, r8L ; ret ; (1 found)
0x4a28f: mov ebx,  [rsp+0x08] ; mov al, r9L ; mov rdi, qword [rsp+0x10] ; ret ; (1 found)
0x32d62: mov ebx,  [rsp+0x08] ; mov byte [r9+0x13], al ; ret ; (1 found)
0x8aa84: mov ebx,  [rsp+0x08] ; mov eax, r9d ; mov rdi, qword [rsp+0x10] ; ret ; (1 found)
0x3db8e: mov ebx,  [rsp+0x08] ; mov rax, r8 ; ret ; (2 found)
0x2f878: mov ebx,  [rsp+0x08] ; mov rdi, qword [rsp+0x10] ; ret ; (5 found)
0x7e37: mov ebx,  [rsp+0x08] ; mov rsi, qword [rsp+0x10] ; mov rdi, qword [rsp+0x18] ; ret ; (8 found)
0x7bea5: mov ebx,  [rsp+0x08] ; ret ; (7 found)
0x32c23: mov ebx,  [rsp+0x08] ; sete cl ; mov byte [r10+0x15], cl ; ret ; (1 found)
0x428cd: mov ebx,  [rsp+0x08] ; xor eax, eax ; mov rsi, qword [rsp+0x10] ; ret ; (1 found)
0x1ef5: mov ebx,  [rsp+0x20] ; mov rsi, qword [rsp+0x28] ; pop r14 ; ret ; (2 found)
0x5f25: mov ebx,  [rsp+0x30] ; add rsp, 0x20 ; pop r14 ; ret ; (1 found)
0x1478a: mov ebx,  [rsp+0x30] ; add rsp, 0x20 ; pop rbp ; ret ; (1 found)
0x922c: mov ebx,  [rsp+0x30] ; add rsp, 0x20 ; pop rcx ; ret ; (1 found)
0x76e10: mov ebx,  [rsp+0x30] ; add rsp, 0x20 ; pop rdi ; ret ; (97 found)
0x77175: mov ebx,  [rsp+0x30] ; add rsp, 0x20 ; pop rsi ; ret ; (1 found)
0x7c113: mov ebx,  [rsp+0x38] ; add rsp, 0x20 ; pop rdi ; ret ; (14 found)
0x7ddfb: mov ebx,  [rsp+0x40] ; add rsp, 0x30 ; pop rdi ; ret ; (22 found)
0x7a108: mov ebx,  [rsp+0x40] ; add rsp, 0x30 ; pop rsi ; ret ; (1 found)
0x303ea: mov ebx,  [rsp+0x48] ; add rsp, 0x20 ; pop rdi ; ret ; (1 found)
0x7fcc4: mov ebx,  [rsp+0x48] ; add rsp, 0x30 ; pop rdi ; ret ; (7 found)
0x7a7b0: mov ebx,  [rsp+0x50] ; add rsp, 0x30 ; pop rdi ; ret ; (6 found)
0x7f2fb: mov ebx,  [rsp+0x50] ; add rsp, 0x40 ; pop rbp ; ret ; (1 found)
0x86813: mov ebx,  [rsp+0x50] ; add rsp, 0x40 ; pop rdi ; ret ; (11 found)
0x41ff9: mov ebx,  [rsp+0x50] ; add rsp, 0x40 ; pop rsi ; ret ; (1 found)
0x45897: mov ebx,  [rsp+0x60] ; add rsp, 0x40 ; pop rdi ; ret ; (1 found)
0xf028: mov ebx,  [rsp+0x60] ; add rsp, 0x50 ; pop rbp ; ret ; (1 found)
0x15213: mov ebx,  [rsp+0x60] ; add rsp, 0x50 ; pop rdi ; ret ; (1 found)
0xad18: mov ebx,  [rsp+0x68] ; add rsp, 0x40 ; pop rdi ; ret ; (2 found)
0xc941: mov ebx,  [rsp+0x70] ; add rsp, 0x60 ; pop rdi ; ret ; (2 found)
0x75b03: mov ebx,  [rsp+0x78] ; add rsp, 0x60 ; pop rbp ; ret ; (1 found)
0x194b: mov ebx,  [rsp+0x78] ; add rsp, 0x60 ; pop rcx ; ret ; (1 found)
0x76dc5: mov ebx,  [rsp+0x78] ; add rsp, 0x60 ; pop rdi ; ret ; (1 found)
0x557a: mov ebx, 0x000001AD ; add byte [rdi], cl ; test byte [rbx+rdx*2-0x74B7FFFF], dl ; ret ; (1 found)
0x2e6e5: mov ebx, 0x48000548 ; add esp, 0x28 ; ret ; (1 found)
0x37200: mov ebx, 0x48C00000 ; add esp, 0x20 ; pop rbx ; ret ; (1 found)
0x2c0c4: mov ebx, 0x48C00000 ; add esp, 0x28 ; ret ; (1 found)
0x42e3e: mov ebx, 0x48C00000 ; add esp, 0x38 ; ret ; (1 found)
0x82f79: mov ebx, 0x85FFFFFE ; sar byte [rax+0x06], 0xFF ; ret ; (1 found)
0x1c08e: mov ebx, 0x8B4C0004 ; ret ; (1 found)
0x88e87: mov ebx, 0x8BFFF8E1 ; ret ; (1 found)
0x8ce7: mov ebx, 0xF6C00000 ; ret ; (1 found)
0x1d9b9: mov ebx, esp ; add byte [rax], al ; add byte [rcx-0x75], cl ; ret ; (1 found)
0x7bc26: mov ecx,  [0x0000000000064C58] ; mov qword [rdx], rcx ; ret ; (1 found)
0x176e1: mov ecx,  [0x0000000000067C38] ; mov  [rcx+0x000000B0], 0x00000000 ; ret ; (1 found)
0x16fe7: mov ecx,  [rax+rcx*4] ; xor eax, eax ; mov  [rdx], ecx ; ret ; (1 found)
0x16d79: mov ecx,  [rax+rdx*4] ; mov  [r8], ecx ; xor eax, eax ; ret ; (1 found)
0x2d21c: mov ecx,  [rcx+0x38] ; mov  [rdx], ecx ; ret ; (1 found)
0x17433: mov ecx,  [rdi+0x70] ; mov rax, qword [rdi+0x000000A0] ; mov rdi, qword [rdi+0x78] ; jmp rcx ; (1 found)
0x78196: mov ecx, 0x00000001 ; mov  [rdx], ecx ; add rsp, 0x28 ; ret ; (1 found)
0x3c096: mov ecx, 0x00000002 ; cmove rax, rcx ; ret ; (1 found)
0xbd33: mov ecx, 0x00000003 ; cmp edx, ecx ; cmove eax, ecx ; ret ; (2 found)
0x30bf1: mov ecx, 0x0000000A ; cmp rax, rcx ; cmovb rax, rcx ; ret ; (1 found)
0x1d978: mov ecx, 0x40000084 ; xor edx, edx ; wrmsr ; ret ; (1 found)
0x31ff9: mov ecx, 0x400000B0 ; wrmsr ; ret ; (1 found)
0x4927: mov ecx, 0x40000110 ; wrmsr ; xor eax, eax ; ret ; (1 found)
0x4942: mov ecx, 0x40000110 ; xor edx, edx ; wrmsr ; ret ; (1 found)
0x490a: mov ecx, 0x40000111 ; wrmsr ; xor eax, eax ; ret ; (1 found)
0x113eb: mov ecx, 0x4800000C ; add esp, 0x28 ; ret ; (1 found)
0x2c203: mov ecx, 0x48000456 ; add esp, 0x28 ; ret ; (1 found)
0x331f3: mov ecx, 0x48FFFE3E ; add esp, 0x58 ; ret ; (1 found)
0x33547: mov ecx, 0x48FFFFFC ; add esp, 0x38 ; ret ; (1 found)
0x7f513: mov ecx, 0x8BFFF84F ; fadd  [rbp-0x173B8740] ; retn 0xF8B8 ; (1 found)
0x76383: mov ecx, 0x8BFFF9D4 ; ret ; (1 found)
0x2d213: mov ecx, 0xC0000001 ; cmovne eax, ecx ; ret ; (1 found)
0x7a67e: mov ecx, 0xC00000BB ; mov eax, ecx ; add rsp, 0x28 ; ret ; (1 found)
0x16270: mov ecx, 0xFF410000 ; ret ; (1 found)
0x3bb71: mov ecx, 0xFFFFFFEF ; add byte [rax], al ; lock dec  [rax+0x23] ; ret ; (1 found)
0x177c3: mov ecx, eax ; mov  [rcx+r9], eax ; mov eax, 0x00000004 ; ret ; (1 found)
0x17783: mov ecx, eax ; mov byte [rcx+r9], al ; mov eax, 0x00000001 ; ret ; (1 found)
0x90070: mov ecx, eax ; mov eax, 0xC0000004 ; mov  [r8], r9d ; ret ; (1 found)
0x44da6: mov ecx, eax ; mov eax, ecx ; add rsp, 0x48 ; ret ; (1 found)
0x177a4: mov ecx, eax ; mov word [rcx+r9], ax ; mov eax, 0x00000002 ; ret ; (1 found)
0xc0b3: mov ecx, ebx ; mov rax, qword [rax+0x18] ; call rax ; (1 found)
0x2b1b6: mov ecx, ebx ; mov rax, qword [rax+0x28] ; call rax ; (1 found)
0x2b45e: mov ecx, ebx ; mov rax, qword [rax+0x30] ; call rax ; (1 found)
0x2b025: mov ecx, ebx ; mov rax, qword [rax+0x38] ; call rax ; (1 found)
0x2b0a0: mov ecx, ebx ; mov rax, qword [rax+0x40] ; call rax ; (1 found)
0x3544f: mov ecx, ecx ; wrmsr ; add rsp, 0x38 ; ret ; (1 found)
0x2b121: mov ecx, edx ; mov rax, qword [rax+0x10] ; call rax ; (1 found)
0x2b120: mov ecx, r10d ; mov rax, qword [rax+0x10] ; call rax ; (1 found)
0x3544e: mov ecx, r9d ; wrmsr ; add rsp, 0x38 ; ret ; (1 found)
0x8b3b0: mov edi,  [rbx+0x18] ; mov rsp, r11 ; pop rbp ; ret ; (3 found)
0x83afb: mov edi,  [rbx+0x20] ; mov rsp, r11 ; pop r14 ; ret ; (2 found)
0x777e7: mov edi,  [rbx+0x20] ; mov rsp, r11 ; pop rbp ; ret ; (5 found)
0x8795: mov edi,  [rbx+0x28] ; mov rsp, r11 ; pop r14 ; ret ; (1 found)
0x32306: mov edi,  [rbx+0x28] ; mov rsp, r11 ; pop r15 ; ret ; (1 found)
0x88d98: mov edi,  [rbx+0x28] ; mov rsp, r11 ; pop rbp ; ret ; (2 found)
0x1743e: mov edi,  [rdi+0x78] ; jmp rcx ; (1 found)
0x8aa8c: mov edi,  [rsp+0x10] ; ret ; (7 found)
0x253bd: mov edi,  [rsp+0x18] ; mov  [r14], r11d ; mov r14, qword [rsp+0x20] ; ret ; (1 found)
0x76cb7: mov edi,  [rsp+0x18] ; ret ; (13 found)
0x23e61: mov edi,  [rsp+0x20] ; mov  [r9], r10d ; ret ; (1 found)
0x8f4ee: mov edi,  [rsp+0x20] ; mov rbp, qword [rsp+0x10] ; mov rsi, qword [rsp+0x18] ; ret ; (1 found)
0x2c509: mov edi,  [rsp+0x20] ; pop rcx ; ret ; (1 found)
0x90151: mov edi,  [rsp+0x20] ; ret ; (2 found)
0x7bc02: mov edi,  [rsp+0x28] ; pop r14 ; ret ; (3 found)
0x588a: mov edi,  [rsp+0x30] ; pop r15 ; pop r14 ; ret ; (3 found)
0x7951: mov edi,  [rsp+0x38] ; add rsp, 0x20 ; pop rcx ; ret ; (2 found)
0x76342: mov edi,  [rsp+0x40] ; add rsp, 0x20 ; pop r14 ; ret ; (2 found)
0x418b4: mov edi,  [rsp+0x40] ; add rsp, 0x20 ; pop rcx ; ret ; (1 found)
0x772ce: mov edi,  [rsp+0x48] ; add rsp, 0x20 ; pop r14 ; ret ; (35 found)
0xce17: mov edi,  [rsp+0x48] ; add rsp, 0x30 ; pop r14 ; ret ; (1 found)
0x2ce98: mov edi,  [rsp+0x50] ; add rsp, 0x30 ; pop r14 ; ret ; (2 found)
0x3f7cf: mov edi,  [rsp+0x50] ; add rsp, 0x30 ; pop rbp ; ret ; (1 found)
0x83018: mov edi,  [rsp+0x58] ; add rsp, 0x30 ; pop r14 ; ret ; (8 found)
0x3cbcb: mov edi,  [rsp+0x58] ; add rsp, 0x40 ; pop rbp ; ret ; (1 found)
0x3b9c: mov edi,  [rsp+0x68] ; add rsp, 0x40 ; pop r14 ; ret ; (4 found)
0x23bab: mov edi,  [rsp+0x68] ; add rsp, 0x40 ; pop r15 ; ret ; (2 found)
0xa8eb: mov edi,  [rsp+0x68] ; add rsp, 0x40 ; pop rbp ; ret ; (1 found)
0x7f0c6: mov edi,  [rsp+0x68] ; add rsp, 0x50 ; pop rbp ; ret ; (2 found)
0x2afd4: mov edi,  [rsp+0x70] ; add rsp, 0x50 ; pop rbp ; ret ; (2 found)
0x8442b: mov edi,  [rsp+0x78] ; add rsp, 0x50 ; pop r14 ; ret ; (2 found)
0x176bb: mov edi, 0x00000410 ; inc  [rdi+0x04] ; pop rdi ; ret ; (1 found)
0x8eb12: mov edi, 0x334503EB ; rol byte [rcx-0x75], 0xC0 ; ret ; (1 found)
0xc19d: mov edi, 0x48FFFFF7 ; add esp, 0x38 ; ret ; (1 found)
0x2b479: mov edi, 0x730DFFF0 ; retn 0x0003 ; (1 found)
0x1f7e7: mov edi, esi ; call qword [rax-0x00F1E217] ; (1 found)
0x48e1: mov edx,  [rcx+0x08] ; in eax, dx ; mov eax, eax ; ret ; (1 found)
0x4b38: mov edx, 0x00000071 ; in al, dx ; ret ; (1 found)
0x4b5b: mov edx, 0x00000071 ; mov al, r8L ; out dx, al ; ret ; (1 found)
0x3e66c: mov edx, 0x000009FF ; add byte [rax], al ; lock dec  [rax+0x23] ; retn 0xC148 ; (1 found)
0x40ffa: mov edx, 0x00000CFC ; out dx, eax ; mov eax, 0x00000004 ; ret ; (1 found)
0x477ac: mov edx, 0x0B410BF0 ; ret ; (1 found)
0x11743: mov edx, 0x0B410BF0 ; retn 0x4189 ; (1 found)
0x476da: mov edx, 0x0B410BF0 ; retn 0x8941 ; (1 found)
0x81903: mov edx, 0x0B4814F0 ; retn 0x8B48 ; (2 found)
0x5b06: mov edx, 0x20C48348 ; pop rbx ; ret ; (1 found)
0xabf2: mov edx, 0x480000C4 ; add esp, 0x30 ; pop rbx ; ret ; (1 found)
0x78785: mov edx, 0x820F1EE2 ; iretq ; (1 found)
0x1c1c9: mov edx, 0x830F08E0 ; retn 0x0001 ; (1 found)
0x83c01: mov edx, 0x89480EE8 ; sbb r8L, sil ; or  [rsp+0x00], 0x00000000 ; ret ; (1 found)
0x7b4b1: mov edx, 0x89480EF0 ; sbb r8L, sil ; or  [rsp+0x00], 0x00000000 ; ret ; (1 found)
0x3439b: mov edx, 0x8B4816EA ; retn 0xC148 ; (2 found)
0x88d88: mov edx, 0x8BFFF8E2 ; ret ; (1 found)
0x1c526: mov edx, 0xE18110E9 ; add byte [rax+0x0F410000], al ; retn 0x8B44 ; (1 found)
0x19dcb: mov edx, 0xE9FFFE9E ; ret ; (1 found)
0x9ca0: mov edx, 0xED720CE1 ; ret ; (1 found)
0x17161: mov edx, 0xFFFFFFFF ; sldt word [rax] ; add byte [rax+0x23], cl ; retn 0xBA48 ; (1 found)
0x16943: mov edx, eax ; mov qword [r11], rcx ; mov  [r8], edx ; ret ; (1 found)
0x3547f: mov edx, eax ; mov rax, r10 ; add rsp, 0x28 ; ret ; (2 found)
0x4a36: mov edx, eax ; shr rdx, 0x20 ; wrmsr ; ret ; (1 found)
0x2b09e: mov edx, ebx ; mov ecx, ebx ; mov rax, qword [rax+0x40] ; call rax ; (1 found)
0x2b022: mov edx, ebx ; mov rcx, rbx ; mov rax, qword [rax+0x38] ; call rax ; (1 found)
0x2b45b: mov edx, edx ; mov rcx, r11 ; mov rax, qword [rax+0x30] ; call rax ; (1 found)
0x4a54: mov es, word [rax+rax] ; mov qword [rcx], rax ; xor eax, eax ; ret ; (1 found)
0x1394e: mov es, word [rcx+0x05] ; add byte [rax-0x007F], cl ; ret ; (1 found)
0x7d6a5: mov esi,  [rbx+0x18] ; mov rsp, r11 ; pop rdi ; ret ; (4 found)
0x82d37: mov esi,  [rbx+0x20] ; mov rsp, r11 ; pop rdi ; ret ; (3 found)
0x7ba15: mov esi,  [rbx+0x28] ; mov rsp, r11 ; pop r15 ; ret ; (2 found)
0xc450: mov esi,  [rbx+0x28] ; mov rsp, r11 ; pop rbp ; ret ; (4 found)
0x945e: mov esi,  [rbx+0x28] ; mov rsp, r11 ; pop rdi ; ret ; (1 found)
0x8d94: mov esi,  [rsp+0x10] ; mov  [r8], r9d ; ret ; (1 found)
0x76cb2: mov esi,  [rsp+0x10] ; mov rdi, qword [rsp+0x18] ; ret ; (11 found)
0x428d4: mov esi,  [rsp+0x10] ; ret ; (1 found)
0x23e5c: mov esi,  [rsp+0x18] ; mov rdi, qword [rsp+0x20] ; mov  [r9], r10d ; ret ; (1 found)
0x2c504: mov esi,  [rsp+0x18] ; mov rdi, qword [rsp+0x20] ; pop rcx ; ret ; (1 found)
0x9014c: mov esi,  [rsp+0x18] ; mov rdi, qword [rsp+0x20] ; ret ; (2 found)
0x8f4f8: mov esi,  [rsp+0x18] ; ret ; (1 found)
0x7bbfd: mov esi,  [rsp+0x20] ; mov rdi, qword [rsp+0x28] ; pop r14 ; ret ; (3 found)
0x253c5: mov esi,  [rsp+0x20] ; ret ; (1 found)
0x1efa: mov esi,  [rsp+0x28] ; pop r14 ; ret ; (2 found)
0x41823: mov esi,  [rsp+0x38] ; add rsp, 0x20 ; pop rcx ; ret ; (1 found)
0x7802b: mov esi,  [rsp+0x38] ; add rsp, 0x20 ; pop rdi ; ret ; (62 found)
0x29885: mov esi,  [rsp+0x40] ; add rsp, 0x20 ; pop r14 ; ret ; (2 found)
0x751f7: mov esi,  [rsp+0x40] ; add rsp, 0x20 ; pop rdi ; ret ; (46 found)
0x77ddd: mov esi,  [rsp+0x48] ; add rsp, 0x20 ; pop r15 ; ret ; (2 found)
0x570c: mov esi,  [rsp+0x48] ; add rsp, 0x20 ; pop rdi ; ret ; (16 found)
0x7dda8: mov esi,  [rsp+0x48] ; add rsp, 0x30 ; pop rdi ; ret ; (10 found)
0x7a389: mov esi,  [rsp+0x50] ; add rsp, 0x30 ; pop rdi ; ret ; (19 found)
0x7dd2b: mov esi,  [rsp+0x58] ; add rsp, 0x30 ; pop rdi ; ret ; (6 found)
0x1183: mov esi,  [rsp+0x58] ; add rsp, 0x40 ; pop rdi ; ret ; (3 found)
0x75322: mov esi,  [rsp+0x60] ; add rsp, 0x40 ; pop rdi ; ret ; (10 found)
0x10f9: mov esi,  [rsp+0x68] ; add rsp, 0x40 ; pop r15 ; ret ; (4 found)
0x7acd3: mov esi,  [rsp+0x68] ; add rsp, 0x40 ; pop rdi ; ret ; (3 found)
0x40e17: mov esi,  [rsp+0x68] ; add rsp, 0x50 ; pop rdi ; ret ; (1 found)
0x2c607: mov esi,  [rsp+0x70] ; add rsp, 0x50 ; pop rdi ; ret ; (3 found)
0x7e166: mov esi,  [rsp+0x78] ; add rsp, 0x50 ; pop rdi ; ret ; (2 found)
0x10fe3: mov esi,  [rsp+0x78] ; add rsp, 0x60 ; pop rbp ; ret ; (1 found)
0x35658: mov esi,  [rsp+0x78] ; add rsp, 0x60 ; pop rdi ; ret ; (1 found)
0x9f77: mov esi, 0x3B480005 ; retn 0x840F ; (1 found)
0x1784e: mov esi, 0x48FFFFFB ; add esp, 0x28 ; ret ; (1 found)
0x7e31f: mov esp,  [rsp+0x58] ; add rsp, 0x30 ; pop r14 ; ret ; (1 found)
0x1d228: mov esp, 0x00008024 ; add byte [rbx+rbx*8+0x0FCF8B48], al ; xchg eax, esp ; retn 0x91E8 ; (1 found)
0x458c0: mov esp, 0x48FFFFFD ; add esp, 0x28 ; ret ; (1 found)
0xa958: mov esp, 0x8A000160 ; ret ; (1 found)
0x83aff: mov esp, ebx ; pop r14 ; ret ; (3 found)
0x7ba19: mov esp, ebx ; pop r15 ; ret ; (3 found)
0x777eb: mov esp, ebx ; pop rbp ; ret ; (15 found)
0x7d6a9: mov esp, ebx ; pop rdi ; ret ; (9 found)
0x83a2b: mov gs, word [rax] ; add  [rax], eax ; add bh, bh ; ret ; (1 found)
0x88026: mov qword [0x0000000000064898], rax ; ret ; (1 found)
0x7a188: mov qword [0x0000000000064900], rax ; mov qword [r9], rax ; xor eax, eax ; ret ; (1 found)
0x8c416: mov qword [0x0000000000064A68], rax ; ret ; (1 found)
0x8c40f: mov qword [0x0000000000064A70], rax ; mov qword [0x0000000000064A68], rax ; ret ; (1 found)
0x8c67b: mov qword [0x0000000000065948], rcx ; mov qword [rcx], rax ; add rsp, 0x38 ; ret ; (1 found)
0xc053: mov qword [0x0000000000065C90], rax ; ret ; (1 found)
0x4f1a: mov qword [0x0000000000065CC0], rax ; ret ; (1 found)
0x53de: mov qword [0x0000000000065D50], rax ; add rsp, 0x40 ; pop rdi ; ret ; (1 found)
0x313ae: mov qword [0x0000000000065DF0], rax ; add rsp, 0x38 ; ret ; (1 found)
0x5319: mov qword [0x0000000000065E18], rax ; add rsp, 0x28 ; ret ; (1 found)
0x31521: mov qword [0x0000000000065E18], rax ; add rsp, 0x30 ; pop rbx ; ret ; (1 found)
0x14854: mov qword [0x0000000000066150], rcx ; add rsp, 0x30 ; pop rdi ; ret ; (1 found)
0x4501: mov qword [0x0000000000067630], rax ; ret ; (1 found)
0x44fa: mov qword [0x0000000000067638], rax ; mov qword [0x0000000000067630], rax ; ret ; (1 found)
0x1428d: mov qword [0x0000000000067FC0], rdx ; add rsp, 0x28 ; ret ; (1 found)
0x31dbb: mov qword [0x00000000000690E0], rax ; add rsp, 0x38 ; ret ; (1 found)
0x30058: mov qword [0x000000000006A078], rcx ; ret ; (1 found)
0x5dd6: mov qword [r10], rcx ; mov rbx, qword [rsp+0x08] ; mov al, r8L ; ret ; (1 found)
0x16945: mov qword [r11], rcx ; mov  [r8], edx ; ret ; (1 found)
0x3b445: mov qword [r11], rdx ; ret ; (1 found)
0x362b1: mov qword [r8], r11 ; mov  [r8+0x08], r11d ; mov word [r8+0x0E], r11w ; ret ; (1 found)
0x44b5: mov qword [r8], r9 ; xor eax, eax ; ret ; (1 found)
0x3d661: mov qword [r8], rax ; add rsp, 0x38 ; ret ; (1 found)
0x8ba03: mov qword [r8], rax ; ret ; (1 found)
0x16dfb: mov qword [r8], rcx ; ret ; (1 found)
0x16df2: mov qword [r9], 0x0000000000000001 ; mov al, 0x01 ; mov qword [r8], rcx ; ret ; (1 found)
0x7a18f: mov qword [r9], rax ; xor eax, eax ; ret ; (1 found)
0x3eaec: mov qword [r9], rcx ; mov al, 0x01 ; ret ; (1 found)
0x8a136: mov qword [rax+0x00000098], rcx ; add rsp, 0x28 ; ret ; (1 found)
0x8807e: mov qword [rax+0x00000130], rcx ; ret ; (1 found)
0x178ce: mov qword [rax+0x000001F8], r8 ; xor eax, eax ; add rsp, 0x28 ; ret ; (1 found)
0x15a66: mov qword [rax+0x00000448], rcx ; add rsp, 0x20 ; pop rdi ; ret ; (1 found)
0x27fd6: mov qword [rax+0x08], r8 ; mov rax, rcx ; ret ; (1 found)
0x7762b: mov qword [rax+0x18], rdx ; mov qword [rax+0x20], r11 ; xor eax, eax ; ret ; (1 found)
0x7762f: mov qword [rax+0x20], r11 ; xor eax, eax ; ret ; (1 found)
0x88059: mov qword [rax+0x40], rcx ; lea rcx, qword [0x0000000000016DE0] ; mov qword [rax+0x50], rcx ; ret ; (1 found)
0x88064: mov qword [rax+0x50], rcx ; ret ; (1 found)
0x1781c: mov qword [rax+0x78], r8 ; add rsp, 0x28 ; xor eax, eax ; ret ; (1 found)
0x37e4f: mov qword [rax], r11 ; xor al, al ; ret ; (1 found)
0x948e: mov qword [rax], r8 ; mov al, 0x01 ; add rsp, 0x38 ; ret ; (1 found)
0x48c5: mov qword [rax], r8 ; mov al, 0x01 ; ret ; (1 found)
0x37e7e: mov qword [rax], rcx ; mov al, 0x01 ; ret ; (2 found)
0x4678: mov qword [rax], rdx ; invlpg byte [rcx] ; mov rax, rcx ; ret ; (1 found)
0x1428a: mov qword [rax], rdx ; mov qword [0x0000000000067FC0], rdx ; add rsp, 0x28 ; ret ; (1 found)
0x1146d: mov qword [rbx+0x58], rdx ; add rsp, 0x20 ; pop rbx ; ret ; (3 found)
0x30c21: mov qword [rcx+0x000000FC], rax ; mov qword [rcx+0x00000108], rax ; ret ; (1 found)
0x313e2: mov qword [rcx+0x00000108], r9 ; ret ; (1 found)
0x30c28: mov qword [rcx+0x00000108], rax ; ret ; (1 found)
0x2ea7a: mov qword [rcx+0x00000120], r9 ; ret ; (1 found)
0x7767a: mov qword [rcx+0x08], r11 ; mov  [rax], r9d ; mov eax, r11d ; ret ; (1 found)
0x7b4b4: mov qword [rcx+0x18], rax ; lock or  [rsp+0x00], 0x00000000 ; ret ; (2 found)
0x78165: mov qword [rcx+0x30], rax ; mov eax, edx ; ret ; (1 found)
0x17c81: mov qword [rcx+r8-0x08], rdx ; ret ; (1 found)
0x8c682: mov qword [rcx], rax ; add rsp, 0x38 ; ret ; (1 found)
0x3b010: mov qword [rcx], rax ; mov al, 0x01 ; ret ; (1 found)
0x45d2: mov qword [rcx], rax ; mov eax, 0xC00000BB ; ret ; (1 found)
0x75137: mov qword [rcx], rax ; xor eax, eax ; ret ; (3 found)
0x3e70e: mov qword [rdi+0x10], rax ; add rsp, 0x20 ; pop rdi ; ret ; (2 found)
0x4600e: mov qword [rdi+0x58], rdx ; add rsp, 0x20 ; pop rdi ; ret ; (1 found)
0x780f8: mov qword [rdx+0x20], rcx ; xor eax, eax ; add rsp, 0x28 ; ret ; (1 found)
0x3c0b3: mov qword [rdx], rax ; mov eax,  [rcx+0x000000E0] ; ret ; (1 found)
0x7a135: mov qword [rdx], rcx ; mov  [rdx+0x08], 0x00000048 ; mov  [r8], 0x00000010 ; ret ; (1 found)
0x7bc2c: mov qword [rdx], rcx ; ret ; (1 found)
0x1749: mov qword [rsi], r10 ; add rsp, 0x20 ; pop rsi ; ret ; (1 found)
0xc0ad: mov qword [rsp+0x20], rcx ; mov rcx, rbx ; mov rax, qword [rax+0x18] ; call rax ; (1 found)
0x2b1b0: mov qword [rsp+0x20], rcx ; mov rcx, rbx ; mov rax, qword [rax+0x28] ; call rax ; (1 found)
0x3547e: mov r10, rax ; mov rax, r10 ; add rsp, 0x28 ; ret ; (2 found)
0x7e31e: mov r12, qword [rsp+0x58] ; add rsp, 0x30 ; pop r14 ; ret ; (1 found)
0x1106b: mov r13, qword [r11+0x20] ; mov rsp, r11 ; pop rbp ; ret ; (1 found)
0x7ba14: mov r14, qword [r11+0x28] ; mov rsp, r11 ; pop r15 ; ret ; (2 found)
0xc44f: mov r14, qword [r11+0x28] ; mov rsp, r11 ; pop rbp ; ret ; (3 found)
0x253c4: mov r14, qword [rsp+0x20] ; ret ; (1 found)
0x77ddb: mov r14, qword [rsp+0x48] ; add rsp, 0x20 ; pop r15 ; ret ; (3 found)
0x10f8: mov r14, qword [rsp+0x68] ; add rsp, 0x40 ; pop r15 ; ret ; (4 found)
0x2ad72: mov r8, r10 ; mov rax, qword [rax+0x18] ; call rax ; (1 found)
0x2ad6b: mov r8L, byte [0xC28B4D38244C8D4C] ; mov rax, qword [rax+0x18] ; call rax ; (1 found)
0x235d3: mov r8d,  [rax+0x000000A4] ; mov  [rdx+0x14], r8d ; xor eax, eax ; ret ; (1 found)
0x9006f: mov r9d, eax ; mov eax, 0xC0000004 ; mov  [r8], r9d ; ret ; (1 found)
0x177c2: mov r9d, r8d ; mov  [rcx+r9], eax ; mov eax, 0x00000004 ; ret ; (1 found)
0x17782: mov r9d, r8d ; mov byte [rcx+r9], al ; mov eax, 0x00000001 ; ret ; (1 found)
0x177a3: mov r9d, r8d ; mov word [rcx+r9], ax ; mov eax, 0x00000002 ; ret ; (1 found)
0x45a0: mov rax, 0x8000000000000003 ; ret ; (1 found)
0x17410: mov rax, cr2 ; mov cr2, rax ; ret ; (1 found)
0x4960: mov rax, qword [0x0000000000065798] ; mov eax,  [rax+0x000000F0] ; ret ; (1 found)
0x4700: mov rax, qword [0x0000000000065C90] ; ret ; (1 found)
0x5312: mov rax, qword [0x0000000000065D58] ; mov qword [0x0000000000065E18], rax ; add rsp, 0x28 ; ret ; (1 found)
0x46b0: mov rax, qword [0x0000000000065DF8] ; ret ; (1 found)
0x2a6e4: mov rax, qword [0x0000000000067708] ; ret ; (1 found)
0x2abc: mov rax, qword [0x0000000000067C38] ; mov  [rax+0x00000300], edx ; ret ; (1 found)
0x4860: mov rax, qword [0x0000000000067C38] ; movsxd r8, rcx ; mov  [r8+rax], edx ; ret ; (1 found)
0x4840: mov rax, qword [0x0000000000067C38] ; movsxd rdx, rcx ; mov eax,  [rdx+rax] ; ret ; (1 found)
0x4510: mov rax, qword [0x0000000000067CA8] ; ret ; (1 found)
0x13d3e: mov rax, qword [0x0000000000067CB0] ; add rsp, 0x48 ; ret ; (1 found)
0x2fee4: mov rax, qword [0x000000000006A078] ; ret ; (1 found)
0x88070: mov rax, qword [0x0000000000071320] ; lea rcx, qword [0x000000000007E4C0] ; mov qword [rax+0x00000130], rcx ; ret ; (1 found)
0x2b34a: mov rax, qword [0x0000000000074050] ; lea rcx, qword [rbp-0x28] ; mov rax, qword [rax+0x08] ; call rax ; (1 found)
0x46c1: mov rax, qword [0x00000018] ; mov al, byte [rax+0x000000D6] ; ret ; (1 found)
0x46e1: mov rax, qword [0x00000018] ; mov byte [rax+0x000000D6], cl ; ret ; (1 found)
0x46c0: mov rax, qword [gs:0x00000018] ; mov al, byte [rax+0x000000D6] ; ret ; (1 found)
0x46e0: mov rax, qword [gs:0x00000018] ; mov byte [rax+0x000000D6], cl ; ret ; (1 found)
0x27f21: mov rax, qword [r9+0x10] ; lea rax, qword [rax+rcx*8] ; ret ; (1 found)
0x2fb67: mov rax, qword [rax+0x000000C0] ; mov qword [rcx], rax ; xor eax, eax ; ret ; (1 found)
0x2b355: mov rax, qword [rax+0x08] ; call rax ; (1 found)
0x2b123: mov rax, qword [rax+0x10] ; call rax ; (1 found)
0xc0b5: mov rax, qword [rax+0x18] ; call rax ; (2 found)
0x2ac15: mov rax, qword [rax+0x20] ; call rax ; (1 found)
0x2b1b8: mov rax, qword [rax+0x28] ; call rax ; (1 found)
0x2b460: mov rax, qword [rax+0x30] ; call rax ; (1 found)
0x2b027: mov rax, qword [rax+0x38] ; call rax ; (1 found)
0x2b0a2: mov rax, qword [rax+0x40] ; call rax ; (1 found)
0x2aee6: mov rax, qword [rax] ; call rax ; (2 found)
0x4590: mov rax, qword [rcx+0x000001F0] ; ret ; (1 found)
0x48f0: mov rax, qword [rcx+0x08] ; mov eax,  [rax] ; ret ; (1 found)
0x1820: mov rax, qword [rcx+0x48] ; ret ; (1 found)
0x17436: mov rax, qword [rdi+0x000000A0] ; mov rdi, qword [rdi+0x78] ; jmp rcx ; (1 found)
0x48c0: mov rax, qword [rsp+0x28] ; mov qword [rax], r8 ; mov al, 0x01 ; ret ; (1 found)
0xbe80: mov rax, qword [rsp+0x30] ; add rsp, 0x20 ; pop rbx ; ret ; (1 found)
0x37e4a: mov rax, qword [rsp+0x30] ; mov qword [rax], r11 ; xor al, al ; ret ; (1 found)
0x37e79: mov rax, qword [rsp+0x30] ; mov qword [rax], rcx ; mov al, 0x01 ; ret ; (1 found)
0x79488: mov rax, qword [rsp+0x38] ; mov  [rax], r8d ; mov eax, 0xC0000023 ; ret ; (1 found)
0xba64: mov rax, qword [rsp+0x60] ; add rsp, 0x58 ; ret ; (2 found)
0x35481: mov rax, r10 ; add rsp, 0x28 ; ret ; (2 found)
0x341d8: mov rax, r10 ; shr rdx, 0x20 ; wrmsr ; ret ; (2 found)
0x1794d: mov rax, r11 ; ret ; (4 found)
0x1681: mov rax, r8 ; add rsp, 0x20 ; pop rsi ; ret ; (1 found)
0x42219: mov rax, r8 ; div r9 ; imul rax, rcx ; ret ; (1 found)
0x327ec: mov rax, r8 ; ret ; (5 found)
0xbda1: mov rax, r9 ; div r10 ; add rax, rcx ; ret ; (1 found)
0xbdab: mov rax, r9 ; ret ; (3 found)
0x8b18f: mov rax, rbx ; add rsp, 0x20 ; pop rbx ; ret ; (2 found)
0x75262: mov rax, rbx ; add rsp, 0x30 ; pop rbx ; ret ; (1 found)
0x7a32: mov rax, rcx ; add rsp, 0x28 ; ret ; (1 found)
0x42224: mov rax, rcx ; div r9 ; imul rax, r8 ; ret ; (1 found)
0x467e: mov rax, rcx ; ret ; (3 found)
0x300ea: mov rax, rdx ; add rsp, 0x30 ; pop rbx ; ret ; (1 found)
0x3535: mov rax, rdx ; add rsp, 0x38 ; ret ; (1 found)
0x7a61: mov rax, rdx ; ret ; (1 found)
0x4739: mov rax, rdx ; shr rdx, 0x20 ; wrmsr ; ret ; (4 found)
0x8f603: mov rbp, qword [rsp+0x10] ; mov rdi, qword [rsp+0x18] ; ret ; (1 found)
0x90146: mov rbp, qword [rsp+0x10] ; mov rsi, qword [rsp+0x18] ; mov rdi, qword [rsp+0x20] ; ret ; (2 found)
0x8f4f2: mov rbp, qword [rsp+0x10] ; mov rsi, qword [rsp+0x18] ; ret ; (1 found)
0x2de25: mov rbp, qword [rsp+0x38] ; add rsp, 0x20 ; pop rdi ; ret ; (6 found)
0xfad3: mov rbp, qword [rsp+0x40] ; add rsp, 0x20 ; pop rdi ; ret ; (1 found)
0x827aa: mov rbp, qword [rsp+0x48] ; add rsp, 0x20 ; pop rdi ; ret ; (1 found)
0x89140: mov rbp, qword [rsp+0x50] ; add rsp, 0x30 ; pop rdi ; ret ; (2 found)
0x15542: mov rbx, qword [r11+0x10] ; mov rsp, r11 ; pop rdi ; ret ; (1 found)
0x88e8d: mov rbx, qword [rsp+0x00000080] ; add rsp, 0x60 ; pop rbp ; ret ; (1 found)
0x2b8f5: mov rbx, qword [rsp+0x00000080] ; add rsp, 0x60 ; pop rdi ; ret ; (1 found)
0x76c1b: mov rbx, qword [rsp+0x00000080] ; add rsp, 0x70 ; pop rdi ; ret ; (2 found)
0x451b3: mov rbx, qword [rsp+0x00000088] ; add rsp, 0x70 ; pop rdi ; ret ; (1 found)
0x7a88e: mov rbx, qword [rsp+0x00000090] ; add rsp, 0x0000000000000080 ; pop rdi ; ret ; (4 found)
0x30547: mov rbx, qword [rsp+0x00000098] ; add rsp, 0x70 ; pop rdi ; ret ; (1 found)
0x33068: mov rbx, qword [rsp+0x000000A0] ; add rsp, 0x0000000000000090 ; pop rdi ; ret ; (1 found)
0x5d5f: mov rbx, qword [rsp+0x000000B0] ; add rsp, 0x00000000000000A0 ; pop rbp ; ret ; (1 found)
0x75ef8: mov rbx, qword [rsp+0x000000D0] ; add rsp, 0x00000000000000B0 ; pop rbp ; ret ; (1 found)
0x8aff4: mov rbx, qword [rsp+0x000000D0] ; add rsp, 0x00000000000000C0 ; pop rbp ; ret ; (2 found)
0x10ec0: mov rbx, qword [rsp+0x000000E0] ; add rsp, 0x00000000000000D0 ; pop rbp ; ret ; (1 found)
0xe110: mov rbx, qword [rsp+0x000000F0] ; add rsp, 0x00000000000000E0 ; pop rbp ; ret ; (1 found)
0x36680: mov rbx, qword [rsp+0x000000F0] ; add rsp, 0x00000000000000E0 ; pop rdi ; ret ; (1 found)
0x30729: mov rbx, qword [rsp+0x00000120] ; add rsp, 0x0000000000000110 ; pop rdi ; ret ; (1 found)
0x158b0: mov rbx, qword [rsp+0x00000160] ; add rsp, 0x0000000000000150 ; pop rbp ; ret ; (1 found)
0x43e6e: mov rbx, qword [rsp+0x00000168] ; add rsp, 0x0000000000000140 ; pop rdi ; ret ; (1 found)
0x35b1a: mov rbx, qword [rsp+0x00003050] ; add rsp, 0x0000000000003030 ; pop rbp ; ret ; (1 found)
0x49fb: mov rbx, qword [rsp+0x08] ; mov  [r10], ecx ; mov  [r11], edx ; ret ; (1 found)
0x401af: mov rbx, qword [rsp+0x08] ; mov al, r11L ; ret ; (1 found)
0x5dd9: mov rbx, qword [rsp+0x08] ; mov al, r8L ; ret ; (1 found)
0x4a28e: mov rbx, qword [rsp+0x08] ; mov al, r9L ; mov rdi, qword [rsp+0x10] ; ret ; (1 found)
0x32d61: mov rbx, qword [rsp+0x08] ; mov byte [r9+0x13], al ; ret ; (1 found)
0x8aa83: mov rbx, qword [rsp+0x08] ; mov eax, r9d ; mov rdi, qword [rsp+0x10] ; ret ; (1 found)
0x3db8d: mov rbx, qword [rsp+0x08] ; mov rax, r8 ; ret ; (2 found)
0x2f877: mov rbx, qword [rsp+0x08] ; mov rdi, qword [rsp+0x10] ; ret ; (5 found)
0x7e36: mov rbx, qword [rsp+0x08] ; mov rsi, qword [rsp+0x10] ; mov rdi, qword [rsp+0x18] ; ret ; (8 found)
0x7bea4: mov rbx, qword [rsp+0x08] ; ret ; (7 found)
0x32c22: mov rbx, qword [rsp+0x08] ; sete cl ; mov byte [r10+0x15], cl ; ret ; (1 found)
0x428cc: mov rbx, qword [rsp+0x08] ; xor eax, eax ; mov rsi, qword [rsp+0x10] ; ret ; (1 found)
0x1ef4: mov rbx, qword [rsp+0x20] ; mov rsi, qword [rsp+0x28] ; pop r14 ; ret ; (2 found)
0x5f24: mov rbx, qword [rsp+0x30] ; add rsp, 0x20 ; pop r14 ; ret ; (1 found)
0x14789: mov rbx, qword [rsp+0x30] ; add rsp, 0x20 ; pop rbp ; ret ; (1 found)
0x922b: mov rbx, qword [rsp+0x30] ; add rsp, 0x20 ; pop rcx ; ret ; (1 found)
0x76e0f: mov rbx, qword [rsp+0x30] ; add rsp, 0x20 ; pop rdi ; ret ; (97 found)
0x77174: mov rbx, qword [rsp+0x30] ; add rsp, 0x20 ; pop rsi ; ret ; (1 found)
0x7c112: mov rbx, qword [rsp+0x38] ; add rsp, 0x20 ; pop rdi ; ret ; (14 found)
0x7ddfa: mov rbx, qword [rsp+0x40] ; add rsp, 0x30 ; pop rdi ; ret ; (23 found)
0x7a107: mov rbx, qword [rsp+0x40] ; add rsp, 0x30 ; pop rsi ; ret ; (1 found)
0x303e9: mov rbx, qword [rsp+0x48] ; add rsp, 0x20 ; pop rdi ; ret ; (1 found)
0x7fcc3: mov rbx, qword [rsp+0x48] ; add rsp, 0x30 ; pop rdi ; ret ; (7 found)
0x7a7af: mov rbx, qword [rsp+0x50] ; add rsp, 0x30 ; pop rdi ; ret ; (6 found)
0x7f2fa: mov rbx, qword [rsp+0x50] ; add rsp, 0x40 ; pop rbp ; ret ; (1 found)
0x86812: mov rbx, qword [rsp+0x50] ; add rsp, 0x40 ; pop rdi ; ret ; (11 found)
0x41ff8: mov rbx, qword [rsp+0x50] ; add rsp, 0x40 ; pop rsi ; ret ; (1 found)
0x45896: mov rbx, qword [rsp+0x60] ; add rsp, 0x40 ; pop rdi ; ret ; (1 found)
0xf027: mov rbx, qword [rsp+0x60] ; add rsp, 0x50 ; pop rbp ; ret ; (1 found)
0x15212: mov rbx, qword [rsp+0x60] ; add rsp, 0x50 ; pop rdi ; ret ; (1 found)
0xad17: mov rbx, qword [rsp+0x68] ; add rsp, 0x40 ; pop rdi ; ret ; (2 found)
0xc940: mov rbx, qword [rsp+0x70] ; add rsp, 0x60 ; pop rdi ; ret ; (2 found)
0x75b02: mov rbx, qword [rsp+0x78] ; add rsp, 0x60 ; pop rbp ; ret ; (1 found)
0x194a: mov rbx, qword [rsp+0x78] ; add rsp, 0x60 ; pop rcx ; ret ; (1 found)
0x76dc4: mov rbx, qword [rsp+0x78] ; add rsp, 0x60 ; pop rdi ; ret ; (1 found)
0x7bc25: mov rcx, qword [0x0000000000064C58] ; mov qword [rdx], rcx ; ret ; (1 found)
0x176e0: mov rcx, qword [0x0000000000067C38] ; mov  [rcx+0x000000B0], 0x00000000 ; ret ; (1 found)
0x17432: mov rcx, qword [rdi+0x70] ; mov rax, qword [rdi+0x000000A0] ; mov rdi, qword [rdi+0x78] ; jmp rcx ; (1 found)
0x2b45d: mov rcx, r11 ; mov rax, qword [rax+0x30] ; call rax ; (1 found)
0xc0b2: mov rcx, rbx ; mov rax, qword [rax+0x18] ; call rax ; (1 found)
0x2b1b5: mov rcx, rbx ; mov rax, qword [rax+0x28] ; call rax ; (1 found)
0x2b024: mov rcx, rbx ; mov rax, qword [rax+0x38] ; call rax ; (1 found)
0x8b3af: mov rdi, qword [r11+0x18] ; mov rsp, r11 ; pop rbp ; ret ; (3 found)
0x83afa: mov rdi, qword [r11+0x20] ; mov rsp, r11 ; pop r14 ; ret ; (2 found)
0x777e6: mov rdi, qword [r11+0x20] ; mov rsp, r11 ; pop rbp ; ret ; (5 found)
0x8794: mov rdi, qword [r11+0x28] ; mov rsp, r11 ; pop r14 ; ret ; (1 found)
0x32305: mov rdi, qword [r11+0x28] ; mov rsp, r11 ; pop r15 ; ret ; (1 found)
0x88d97: mov rdi, qword [r11+0x28] ; mov rsp, r11 ; pop rbp ; ret ; (2 found)
0x1743d: mov rdi, qword [rdi+0x78] ; jmp rcx ; (1 found)
0x8aa8b: mov rdi, qword [rsp+0x10] ; ret ; (7 found)
0x253bc: mov rdi, qword [rsp+0x18] ; mov  [r14], r11d ; mov r14, qword [rsp+0x20] ; ret ; (1 found)
0x76cb6: mov rdi, qword [rsp+0x18] ; ret ; (13 found)
0x23e60: mov rdi, qword [rsp+0x20] ; mov  [r9], r10d ; ret ; (1 found)
0x8f4ed: mov rdi, qword [rsp+0x20] ; mov rbp, qword [rsp+0x10] ; mov rsi, qword [rsp+0x18] ; ret ; (1 found)
0x2c508: mov rdi, qword [rsp+0x20] ; pop rcx ; ret ; (1 found)
0x90150: mov rdi, qword [rsp+0x20] ; ret ; (2 found)
0x7bc01: mov rdi, qword [rsp+0x28] ; pop r14 ; ret ; (3 found)
0x5889: mov rdi, qword [rsp+0x30] ; pop r15 ; pop r14 ; ret ; (3 found)
0x7950: mov rdi, qword [rsp+0x38] ; add rsp, 0x20 ; pop rcx ; ret ; (2 found)
0x76341: mov rdi, qword [rsp+0x40] ; add rsp, 0x20 ; pop r14 ; ret ; (2 found)
0x418b3: mov rdi, qword [rsp+0x40] ; add rsp, 0x20 ; pop rcx ; ret ; (1 found)
0x772cc: mov rdi, qword [rsp+0x48] ; add rsp, 0x20 ; pop r14 ; ret ; (67 found)
0xce15: mov rdi, qword [rsp+0x48] ; add rsp, 0x30 ; pop r14 ; ret ; (2 found)
0x2ce96: mov rdi, qword [rsp+0x50] ; add rsp, 0x30 ; pop r14 ; ret ; (4 found)
0x3f7cd: mov rdi, qword [rsp+0x50] ; add rsp, 0x30 ; pop rbp ; ret ; (2 found)
0x83017: mov rdi, qword [rsp+0x58] ; add rsp, 0x30 ; pop r14 ; ret ; (8 found)
0x3cbca: mov rdi, qword [rsp+0x58] ; add rsp, 0x40 ; pop rbp ; ret ; (1 found)
0x3b9b: mov rdi, qword [rsp+0x68] ; add rsp, 0x40 ; pop r14 ; ret ; (4 found)
0x23baa: mov rdi, qword [rsp+0x68] ; add rsp, 0x40 ; pop r15 ; ret ; (2 found)
0xa8ea: mov rdi, qword [rsp+0x68] ; add rsp, 0x40 ; pop rbp ; ret ; (1 found)
0x7f0c5: mov rdi, qword [rsp+0x68] ; add rsp, 0x50 ; pop rbp ; ret ; (2 found)
0x2afd3: mov rdi, qword [rsp+0x70] ; add rsp, 0x50 ; pop rbp ; ret ; (2 found)
0x8442a: mov rdi, qword [rsp+0x78] ; add rsp, 0x50 ; pop r14 ; ret ; (2 found)
0x48e0: mov rdx, qword [rcx+0x08] ; in eax, dx ; mov eax, eax ; ret ; (1 found)
0x2b45a: mov rdx, r10 ; mov rcx, r11 ; mov rax, qword [rax+0x30] ; call rax ; (1 found)
0x2b09d: mov rdx, r11 ; mov ecx, ebx ; mov rax, qword [rax+0x40] ; call rax ; (1 found)
0x2b021: mov rdx, r11 ; mov rcx, rbx ; mov rax, qword [rax+0x38] ; call rax ; (1 found)
0x4a35: mov rdx, r8 ; shr rdx, 0x20 ; wrmsr ; ret ; (1 found)
0x16941: mov rdx, rax ; mov qword [r11], rcx ; mov  [r8], edx ; ret ; (2 found)
0x7d6a4: mov rsi, qword [r11+0x18] ; mov rsp, r11 ; pop rdi ; ret ; (4 found)
0x82d36: mov rsi, qword [r11+0x20] ; mov rsp, r11 ; pop rdi ; ret ; (3 found)
0x3319b: mov rsi, qword [r11+0x28] ; mov rsp, r11 ; pop rbp ; ret ; (1 found)
0x945d: mov rsi, qword [r11+0x28] ; mov rsp, r11 ; pop rdi ; ret ; (1 found)
0x8d93: mov rsi, qword [rsp+0x10] ; mov  [r8], r9d ; ret ; (1 found)
0x76cb1: mov rsi, qword [rsp+0x10] ; mov rdi, qword [rsp+0x18] ; ret ; (11 found)
0x428d3: mov rsi, qword [rsp+0x10] ; ret ; (1 found)
0x23e5b: mov rsi, qword [rsp+0x18] ; mov rdi, qword [rsp+0x20] ; mov  [r9], r10d ; ret ; (1 found)
0x2c503: mov rsi, qword [rsp+0x18] ; mov rdi, qword [rsp+0x20] ; pop rcx ; ret ; (1 found)
0x9014b: mov rsi, qword [rsp+0x18] ; mov rdi, qword [rsp+0x20] ; ret ; (2 found)
0x8f4f7: mov rsi, qword [rsp+0x18] ; ret ; (1 found)
0x7bbfc: mov rsi, qword [rsp+0x20] ; mov rdi, qword [rsp+0x28] ; pop r14 ; ret ; (3 found)
0x1ef9: mov rsi, qword [rsp+0x28] ; pop r14 ; ret ; (2 found)
0x41822: mov rsi, qword [rsp+0x38] ; add rsp, 0x20 ; pop rcx ; ret ; (1 found)
0x7802a: mov rsi, qword [rsp+0x38] ; add rsp, 0x20 ; pop rdi ; ret ; (62 found)
0x29884: mov rsi, qword [rsp+0x40] ; add rsp, 0x20 ; pop r14 ; ret ; (2 found)
0x751f6: mov rsi, qword [rsp+0x40] ; add rsp, 0x20 ; pop rdi ; ret ; (46 found)
0x570a: mov rsi, qword [rsp+0x48] ; add rsp, 0x20 ; pop rdi ; ret ; (27 found)
0x7dda6: mov rsi, qword [rsp+0x48] ; add rsp, 0x30 ; pop rdi ; ret ; (18 found)
0x7a387: mov rsi, qword [rsp+0x50] ; add rsp, 0x30 ; pop rdi ; ret ; (36 found)
0x7dd2a: mov rsi, qword [rsp+0x58] ; add rsp, 0x30 ; pop rdi ; ret ; (8 found)
0x1182: mov rsi, qword [rsp+0x58] ; add rsp, 0x40 ; pop rdi ; ret ; (3 found)
0x75321: mov rsi, qword [rsp+0x60] ; add rsp, 0x40 ; pop rdi ; ret ; (10 found)
0x7acd2: mov rsi, qword [rsp+0x68] ; add rsp, 0x40 ; pop rdi ; ret ; (3 found)
0x40e16: mov rsi, qword [rsp+0x68] ; add rsp, 0x50 ; pop rdi ; ret ; (1 found)
0x2c606: mov rsi, qword [rsp+0x70] ; add rsp, 0x50 ; pop rdi ; ret ; (3 found)
0x7e165: mov rsi, qword [rsp+0x78] ; add rsp, 0x50 ; pop rdi ; ret ; (2 found)
0x10fe2: mov rsi, qword [rsp+0x78] ; add rsp, 0x60 ; pop rbp ; ret ; (1 found)
0x35657: mov rsi, qword [rsp+0x78] ; add rsp, 0x60 ; pop rdi ; ret ; (1 found)
0x83afe: mov rsp, r11 ; pop r14 ; ret ; (3 found)
0x7ba18: mov rsp, r11 ; pop r15 ; ret ; (3 found)
0x777ea: mov rsp, r11 ; pop rbp ; ret ; (15 found)
0x7d6a8: mov rsp, r11 ; pop rdi ; ret ; (9 found)
0x78aa3: mov seg?, di ; call qword [rax-0x0027F817] ; (1 found)
0x1fb78: mov si, seg? ; call qword [rax-0x00F0CB17] ; (1 found)
0x7d069: mov ss, word [rax] ; add  [rax], eax ; add byte [rbp-0x75], al ; retn 0x8341 ; (1 found)
0x362b8: mov word [r8+0x0E], r11w ; ret ; (1 found)
0x163b0: mov word [r8], r10w ; mov  [rcx], eax ; xor eax, eax ; ret ; (1 found)
0x82b72: mov word [r9+0x06], cx ; ret ; (1 found)
0x15027: mov word [r9], ax ; mov eax, 0x00000002 ; ret ; (1 found)
0x2b34e: mov word [rax+rax], es ; lea rcx, qword [rbp-0x28] ; mov rax, qword [rax+0x08] ; call rax ; (1 found)
0x23651: mov word [rax+rcx*8], fs ; add byte [rax], al ; add byte [rcx-0x0A], al ; retn 0x7501 ; (1 found)
0x124f3: mov word [rax], dx ; ret ; (1 found)
0x14fba: mov word [rax], es ; add byte [rax], al ; add  [rcx-0x3FCC8BBF], ecx ; ret ; (1 found)
0x46f2d: mov word [rbx+0x2C], ax ; add rsp, 0x20 ; pop rbx ; ret ; (1 found)
0x38c54: mov word [rbx], es ; add byte [rax-0x7D], cl ; ret ; (1 found)
0x1544a: mov word [rcx+0x3A], ax ; ret ; (1 found)
0x177a6: mov word [rcx+r9], ax ; mov eax, 0x00000002 ; ret ; (1 found)
0x4800: mov word [rcx], dx ; lock or  [rsp+0x00], 0x00000000 ; ret ; (1 found)
0x17748: mov word [rdx], ax ; mov eax, 0x00000002 ; ret ; (1 found)
0x16e75: mov word [rdx], r8w ; xor eax, eax ; ret ; (1 found)
0x176b8: movaps xmm15,  [rdi+0x00000410] ; inc  [rdi+0x04] ; pop rdi ; ret ; (1 found)
0x176b9: movaps xmm7,  [rdi+0x00000410] ; inc  [rdi+0x04] ; pop rdi ; ret ; (1 found)
0x8280b: movd eax, mm1 ; ret ; (1 found)
0x8280a: movd eax, xmm1 ; ret ; (1 found)
0x2e0c: movsxd eax,  [rcx] ; add byte [rcx-0x0A], al ; ret ; (1 found)
0x49054: movsxd eax,  [rdi+rcx+0x20] ; ret ; (1 found)
0x4868: movsxd eax, ecx ; mov  [r8+rax], edx ; ret ; (1 found)
0x8dec1: movsxd ecx,  [rsi] ; cli ; call qword [rax-0x0029FF17] ; (1 found)
0x78716: movsxd edi, ebx ; call qword [rax-0x00303417] ; (2 found)
0x4848: movsxd edx, ecx ; mov eax,  [rdx+rax] ; ret ; (1 found)
0x2bd09: movsxd esi,  [rbx-0x74B3FFFD] ; ret ; (1 found)
0x4867: movsxd r8, rcx ; mov  [r8+rax], edx ; ret ; (1 found)
0x4847: movsxd rdx, rcx ; mov eax,  [rdx+rax] ; ret ; (1 found)
0x17d22: movups  [rcx+r8-0x10], xmm0 ; ret ; (1 found)
0x17d23: movups  [rcx+rax-0x10], xmm0 ; ret ; (1 found)
0x126e8: movzx eax, al ; add rsp, 0x28 ; ret ; (1 found)
0x77550: movzx eax, al ; mov  [rdx], eax ; xor eax, eax ; ret ; (1 found)
0x4754: movzx eax, al ; ret ; (1 found)
0x4775: movzx eax, ax ; ret ; (1 found)
0x45a16: movzx eax, byte [rax+rcx] ; mov eax, r8d ; ret ; (1 found)
0x4780: movzx eax, byte [rcx] ; ret ; (1 found)
0x126bb: movzx eax, byte [rdx] ; mov  [rcx+0x68], eax ; ret ; (1 found)
0x7754f: movzx eax, r8L ; mov  [rdx], eax ; xor eax, eax ; ret ; (1 found)
0x12a21: movzx eax, word [rax] ; add rsp, 0x28 ; ret ; (1 found)
0x8b9ff: movzx eax, word [rcx+0x04] ; mov qword [r8], rax ; ret ; (1 found)
0x15446: movzx eax, word [rcx+0x52] ; mov word [rcx+0x3A], ax ; ret ; (1 found)
0x11c6e: movzx eax, word [rcx+0x68] ; mov  [rcx+0x14], eax ; add rsp, 0x28 ; ret ; (1 found)
0x477e6: movzx eax, word [rcx+0x68] ; mov  [rcx+0x14], eax ; ret ; (1 found)
0x47a0: movzx eax, word [rcx] ; ret ; (1 found)
0x14f3e: movzx eax, word [rdx+0x68] ; mov  [rdx+0x14], eax ; ret ; (1 found)
0x12630: movzx eax, word [rdx] ; mov  [rcx+0x6C], eax ; ret ; (1 found)
0x82b6c: movzx ecx, al ; or cx, ax ; mov word [r9+0x06], cx ; ret ; (1 found)
0x82b6b: movzx ecx, r8L ; or cx, ax ; mov word [r9+0x06], cx ; ret ; (1 found)
0x16e39: movzx ecx, word [rax+rcx*2] ; xor eax, eax ; mov  [r8], ecx ; ret ; (1 found)
0x3eae8: movzx ecx, word [rdx+0x0C] ; mov qword [r9], rcx ; mov al, 0x01 ; ret ; (1 found)
0x32e04: movzx edx, ax ; lea eax,  [rdx+rdx] ; cmove eax, edx ; ret ; (1 found)
0x4750: movzx edx, cx ; in al, dx ; movzx eax, al ; ret ; (1 found)
0x4770: movzx edx, cx ; in ax, dx ; movzx eax, ax ; ret ; (1 found)
0x4760: movzx edx, cx ; in eax, dx ; ret ; (1 found)
0x47b2: movzx edx, cx ; out dx, al ; ret ; (1 found)
0x8ec8: movzx edx, cx ; out dx, al ; xor eax, eax ; ret ; (1 found)
0x47d2: movzx edx, cx ; out dx, ax ; ret ; (1 found)
0x47c2: movzx edx, cx ; out dx, eax ; ret ; (1 found)
0x45a15: movzx r8d, byte [rax+rcx] ; mov eax, r8d ; ret ; (1 found)
0x16eca: neg al ; sbb eax, eax ; add eax, 0x02 ; ret ; (1 found)
0x1ea38: nop ; add byte [rax], al ; add al, ch ; call qword [rcx-0x3FCC0001] ; (1 found)
0xe075: nop ; add byte [rax], al ; add al, ch ; retn 0x009B ; (1 found)
0x2ac4: nop ; add byte [rbx], al ; add byte [rax], al ; ret ; (1 found)
0x16d7b: nop ; mov  [r8], ecx ; xor eax, eax ; ret ; (1 found)
0x2eea8: nop ; ret ; (2 found)
0x178e8: nop  [rax+rax+0x00000000] ; jmp rax ; (1 found)
0x17408: nop  [rax+rax+0x00000000] ; mov rax, cr2 ; mov cr2, rax ; ret ; (1 found)
0x176d8: nop  [rax+rax+0x00000000] ; mov rcx, qword [0x0000000000067C38] ; mov  [rcx+0x000000B0], 0x00000000 ; ret ; (1 found)
0x8c2be: nop  [rax+rax+0x00] ; add rsp, 0x20 ; pop rbx ; ret ; (6 found)
0x7a5f6: nop  [rax+rax+0x00] ; add rsp, 0x28 ; ret ; (14 found)
0x781eb: nop  [rax+rax+0x00] ; add rsp, 0x38 ; ret ; (7 found)
0x2fd45: nop  [rax+rax+0x00] ; add rsp, 0x48 ; ret ; (1 found)
0x2eff2: nop  [rax+rax+0x00] ; int3 ; add rsp, 0x28 ; ret ; (1 found)
0x29e50: nop  [rax+rax+0x00] ; int3 ; add rsp, 0x68 ; ret ; (1 found)
0x2eabb: nop  [rax+rax+0x00] ; mov al, 0x01 ; add rsp, 0x28 ; ret ; (1 found)
0x759e1: nop  [rax+rax+0x00] ; mov byte [0x0000000000067D78], 0x01 ; add rsp, 0x48 ; ret ; (1 found)
0x13d39: nop  [rax+rax+0x00] ; mov rax, qword [0x0000000000067CB0] ; add rsp, 0x48 ; ret ; (1 found)
0x2eb37: nop  [rax+rax+0x00] ; xor al, al ; add rsp, 0x28 ; ret ; (2 found)
0x7a569: nop  [rax+rax+0x00] ; xor eax, eax ; add rsp, 0x28 ; ret ; (1 found)
0x89918: nop  [rax+rax+0x00] ; xor eax, eax ; add rsp, 0x38 ; ret ; (1 found)
0x178e6: nop word [rax+rax+0x00000000] ; jmp rax ; (2 found)
0x17406: nop word [rax+rax+0x00000000] ; mov rax, cr2 ; mov cr2, rax ; ret ; (2 found)
0x176d6: nop word [rax+rax+0x00000000] ; mov rcx, qword [0x0000000000067C38] ; mov  [rcx+0x000000B0], 0x00000000 ; ret ; (2 found)
0x8a18: not eax ; and eax, 0xC00000BB ; ret ; (1 found)
0x22783: not eax ; and eax, 0xC0000225 ; add rsp, 0x28 ; ret ; (1 found)
0x10e6d: not eax ; and r9d, eax ; mov eax, r9d ; ret ; (1 found)
0x88024: not eax ; mov qword [0x0000000000064898], rax ; ret ; (1 found)
0x88023: not rax ; mov qword [0x0000000000064898], rax ; ret ; (1 found)
0x17788: or  [rax+0x00000001], edi ; ret ; (1 found)
0x177aa: or  [rax+0x00000002], edi ; ret ; (1 found)
0x177c8: or  [rax+0x00000004], edi ; ret ; (1 found)
0x17726: or  [rax+0x0001B802], ecx ; add byte [rax], al ; ret ; (1 found)
0x42bd4: or  [rax+0x23], ecx ; ret ; (1 found)
0x42c69: or  [rax+0x33], ecx ; retn 0x0025 ; (1 found)
0x14fb9: or  [rax+rax-0x76FF0000], 0xC0337441 ; ret ; (1 found)
0x3eaee: or  [rax-0x3FCD3CFF], esi ; ret ; (1 found)
0x3abbe: or  [rax-0x75], ecx ; ret ; (1 found)
0x35751: or  [rax-0x75], ecx ; retn 0x15FF ; (1 found)
0x11d04: or  [rax], eax ; add bl, ch ; retn 0x8948 ; (1 found)
0x2edbc: or  [rax], eax ; cmovb ecx,  [rcx+0x11E11094] ; or  [rax], eax ; ret ; (1 found)
0x2edc5: or  [rax], eax ; ret ; (1 found)
0x44b2: or  [rbp+0x06], esi ; mov qword [r8], r9 ; xor eax, eax ; ret ; (1 found)
0x212da: or  [rbp+0x3B], eax ; ret ; (1 found)
0x3800c: or  [rbp-0x75], eax ; retn 0x528B ; (1 found)
0x17766: or  [rcx+0x0004B802], ecx ; add byte [rax], al ; ret ; (1 found)
0x8ffb6: or  [rcx+0x0F], eax ; mov dh, 0x41 ; add  [rbx], edi ; retn 0x0273 ; (1 found)
0x4ae0: or  [rcx+0x10], 0x01 ; ret ; (1 found)
0x27a76: or  [rcx-0x75], ecx ; ret ; (1 found)
0x7f4d7: or  [rdi+rbp*2-0x7D], esi ; stc ; or esi,  [rdi-0x75] ; ret ; (1 found)
0x1626c: or  [rdi], ecx ; test byte [rcx], ah ; mov ecx, 0xFF410000 ; ret ; (1 found)
0x43f6f: or  [rdi], ecx ; xor  [rbx-0x1D3EB7F7], ecx ; and byte [rax+0x0B], cl ; retn 0x8B48 ; (1 found)
0x10994: or  [rdx+0x0C], 0x02 ; ret ; (1 found)
0xc154: or  [rdx], eax ; ret ; (1 found)
0xc153: or  [rdx], r8d ; ret ; (1 found)
0x82b67: or  [rsi+0x23], esp ; retn 0x0F41 ; (1 found)
0x17747: or  [rsi-0x77], esp ; add bh, byte [rax+0x00000002] ; ret ; (1 found)
0x80979: or  [rsp+0x00], 0x00000000 ; add rsp, 0x30 ; pop rbp ; ret ; (1 found)
0x499d: or  [rsp+0x00], 0x00000000 ; and  [rcx+0x08], 0x00000000 ; mov  [rcx+0x20], eax ; ret ; (1 found)
0x3b6ba: or  [rsp+0x00], 0x00000000 ; mov rbx, qword [rsp+0x08] ; mov rdi, qword [rsp+0x10] ; ret ; (1 found)
0x7b4b9: or  [rsp+0x00], 0x00000000 ; ret ; (6 found)
0x48718: or  [rsp+0x00], 0x00000000 ; xor eax, eax ; ret ; (1 found)
0x7b48e: or  [rsp+0x00], eax ; ret ; (1 found)
0x7d449: or  [rsp+0x00], eax ; xor eax, eax ; ret ; (1 found)
0x83bd8: or  [rsp+0x00], edx ; xor eax, eax ; ret ; (1 found)
0x83bd7: or  [rsp+0x00], r10d ; xor eax, eax ; ret ; (1 found)
0x7b48d: or  [rsp+0x00], r8d ; ret ; (1 found)
0x7d448: or  [rsp+0x00], r8d ; xor eax, eax ; ret ; (1 found)
0x40ffc: or al, 0x00 ; add bh, ch ; mov eax, 0x00000004 ; ret ; (1 found)
0x88f84: or al, 0x00 ; add byte [rax], al ; add rsp, 0x28 ; ret ; (3 found)
0xc00c: or al, 0x00 ; add byte [rax], al ; add rsp, 0x38 ; ret ; (2 found)
0x3bae0: or al, 0x00 ; add byte [rax], al ; add rsp, 0x58 ; ret ; (1 found)
0x20830: or al, 0x00 ; add byte [rax], al ; mov eax, 0xC000000D ; ret ; (1 found)
0x10995: or al, 0x02 ; ret ; (2 found)
0x1712f: or al, 0x05 ; add byte [rsi+0x62], dh ; mov al, 0x01 ; ret ; (1 found)
0x37bdd: or al, 0x0B ; ret ; (1 found)
0x1262f: or al, 0x0F ; mov bh, 0x02 ; mov  [rcx+0x6C], eax ; ret ; (1 found)
0x3db75: or al, 0x3B ; ret ; (4 found)
0x3c0b2: or al, 0x48 ; mov  [rdx], eax ; mov eax,  [rcx+0x000000E0] ; ret ; (1 found)
0x16e3b: or al, 0x48 ; xor eax, eax ; mov  [r8], ecx ; ret ; (1 found)
0x333f: or al, 0x49 ; add eax,  [rcx-0x0A] ; ret ; (1 found)
0x3eaea: or al, 0x49 ; mov  [rcx], ecx ; mov al, 0x01 ; ret ; (2 found)
0x9ca2: or al, 0x72 ; in eax, dx ; ret ; (1 found)
0x50b5: or al, 0x74 ; add eax, 0x28C48348 ; ret ; (1 found)
0x16fe8: or al, 0x88 ; xor eax, eax ; mov  [rdx], ecx ; ret ; (1 found)
0x33430: or al, 0x8A ; ret ; (1 found)
0x3ac47: or al, 0x8B ; ret ; (1 found)
0x2451d: or al, 0x8B ; ror byte [rbp-0x73], 0x34 ; retn 0x8B44 ; (1 found)
0x16d7a: or al, 0x90 ; mov  [r8], ecx ; xor eax, eax ; ret ; (1 found)
0x27f1f: or al, 0xC0 ; mov rax, qword [r9+0x10] ; lea rax, qword [rax+rcx*8] ; ret ; (1 found)
0x8d823: or al, 0xE8 ; out 0x6B, eax ; clc ; call qword [rax-0x003EDB17] ; (1 found)
0x7bbc9: or al, 0xFF ; ret ; (1 found)
0x47327: or al, 0xFF ; retn 0xE8D1 ; (1 found)
0x8568a: or al, 0xFF ; ror byte [rax-0x7D], 0xC1 ; cmp byte [rbx], bh ; retn 0xF272 ; (1 found)
0x16fed: or al, bl ; mov eax, 0xC0000225 ; ret ; (1 found)
0x369cc: or al, byte [rbx-0x6BF0FDC1] ; ret ; (1 found)
0x153bf: or al, byte [rbx-0x70F0FC08] ; push rbx ; retn 0x0000 ; (1 found)
0x3cf3: or al, byte [rbx] ; ret ; (1 found)
0x41c35: or al, dh ; or  [rsp+0x00], 0x00000000 ; ret ; (1 found)
0x36add: or ax, di ; add rsp, 0x20 ; pop rdi ; ret ; (1 found)
0x4210e: or bh, bh ; adc eax, 0x0002F7AB ; add rsp, 0x38 ; ret ; (1 found)
0x2c1d5: or bh, bh ; adc eax, 0x000456E4 ; add rsp, 0x28 ; ret ; (1 found)
0x7e4a7: or bh, bh ; adc eax, 0xFFFF3412 ; add rsp, 0x28 ; ret ; (1 found)
0x1f367: or bh, bh ; inc  [rcx+0x2B] ; ret ; (1 found)
0x798dd: or bh, bh ; ret ; (4 found)
0x2845f: or bh, bh ; retn 0x3B41 ; (1 found)
0x289c8: or bh, bh ; retn 0xD63B ; (1 found)
0x23a78: or bh, bh ; retn 0xEAEB ; (1 found)
0x215f6: or bh, byte [0xFFFFFFFFB71215FB] ; retn 0x8D48 ; (1 found)
0x8f63b: or bh, byte [rbx] ; ror  [rbx+0x528D4DC1], 1 ; add al, 0x0F ; retn 0x3B44 ; (1 found)
0x8aeed: or bl, ah ; add byte [rax], al ; add byte [rax-0x75], cl ; ret ; (1 found)
0x16e41: or bl, al ; mov eax, 0xC0000225 ; ret ; (1 found)
0x16dfd: or bl, al ; xor al, al ; ret ; (1 found)
0x24f7a: or bl, ch ; in eax, 0xFF ; ret ; (1 found)
0x212d8: or bl, ch ; or  [rbp+0x3B], eax ; ret ; (1 found)
0x3a7c1: or byte [r11], bpl ; retn 0x2974 ; (1 found)
0x24b09: or byte [r11], dil ; ret ; (1 found)
0x49d5d: or byte [r15], cl ; xchg eax, esp ; retn 0x3948 ; (1 found)
0x31f4e: or byte [r8+0x03], cl ; retn 0x8948 ; (1 found)
0x3e638: or byte [r8+0x23], r9L ; retn 0xC148 ; (1 found)
0x31f55: or byte [r8-0x75], cl ; add  [rax-0x73], ecx ; sbb byte [r8+0x03], cl ; retn 0x8948 ; (1 found)
0x83842: or byte [r8-0x75], r9L ; cmp byte [rax+0x48000000], 0x3B ; ret ; (1 found)
0x3fff6: or byte [r8-0x77], cl ; cmp ecx,  [rax-0x77] ; sbb byte [rax-0x75], cl ; ret ; (1 found)
0x85457: or byte [r9+0x0B], r8L ; retn 0x8942 ; (1 found)
0x2537b: or byte [r9-0x01], r8L ; ret ; (1 found)
0x7a139: or byte [rax+0x00], cl ; add byte [rax], al ; mov  [r8], 0x00000010 ; ret ; (2 found)
0x13396: or byte [rax+0x03], cl ; add eax, 0x00054B9A ; ret ; (1 found)
0x788f4: or byte [rax+0x03], cl ; fsubr st0, st1 ; retn 0xFFD6 ; (1 found)
0x31f4f: or byte [rax+0x03], cl ; retn 0x8948 ; (1 found)
0x7fb65: or byte [rax+0x03], cl ; retn 0x8B48 ; (4 found)
0x3e639: or byte [rax+0x23], cl ; retn 0xC148 ; (1 found)
0x43fa7: or byte [rax+0x2B], cl ; ret ; (1 found)
0x19bc8: or byte [rax-0x01], cl ; retn 0x8348 ; (2 found)
0x1a6f0: or byte [rax-0x1F7BF0F8], ch ; test eax, 0xC032FFFE ; ret ; (1 found)
0x29fcc: or byte [rax-0x73], cl ; dec  [r8-0x7B] ; ret ; (1 found)
0x31f56: or byte [rax-0x75], cl ; add  [rax-0x73], ecx ; sbb byte [r8+0x03], cl ; retn 0x8948 ; (1 found)
0x83843: or byte [rax-0x75], cl ; cmp byte [rax+0x48000000], 0x3B ; ret ; (1 found)
0x171ff: or byte [rax-0x75], cl ; or byte [rdx-0x09FCFEAC], cl ; retn 0x740F ; (2 found)
0x3db12: or byte [rax-0x75], cl ; or esp,  [rsi+0x21] ; or cl, byte [r8-0x75] ; ret ; (1 found)
0x3fff7: or byte [rax-0x77], cl ; cmp ecx,  [rax-0x77] ; sbb byte [rax-0x75], cl ; ret ; (1 found)
0x3b0a4: or byte [rax-0x7C], al ; dec  [rcx+0x0F] ; ret ; (1 found)
0x7fcc: or byte [rax-0x7D], cl ; ret ; (1 found)
0x7bd08: or byte [rax-0x7D], cl ; retn 0xE814 ; (1 found)
0xa3be: or byte [rax], al ; add byte [rax+rax*8+0x48C0950F], al ; add esp, 0x28 ; ret ; (1 found)
0x4812: or byte [rax], al ; add byte [rax], al ; xor eax, eax ; ret ; (1 found)
0xe9ff: or byte [rax], al ; add byte [rbx], bh ; retn 0x840F ; (1 found)
0x49a3: or byte [rax], al ; mov  [rcx+0x20], eax ; ret ; (1 found)
0x2b54b: or byte [rbp+0x3B], al ; retn 0xC872 ; (1 found)
0x2458e: or byte [rbp+0x3B], al ; retn 0xEB72 ; (1 found)
0x9e16: or byte [rbp-0x74BB07BE], cl ; retn 0x0F44 ; (1 found)
0x3ac09: or byte [rbp-0x75], al ; ret ; (2 found)
0x23a74: or byte [rbp-0x75], cl ; or dil, dil ; retn 0xEAEB ; (1 found)
0x80e78: or byte [rbx+0x30E908FF], al ; retn 0xFFFF ; (1 found)
0x76cae: or byte [rbx+0x748B48C2], cl ; and al, 0x10 ; mov rdi, qword [rsp+0x18] ; ret ; (2 found)
0x9006e: or byte [rbx+rcx*4-0x38], al ; mov eax, 0xC0000004 ; mov  [r8], r9d ; ret ; (1 found)
0x8fc2b: or byte [rbx-0x54F0B72E], cl ; retn 0x8B48 ; (1 found)
0x24b0a: or byte [rbx], bh ; ret ; (1 found)
0x3a7c2: or byte [rbx], ch ; retn 0x2974 ; (1 found)
0x428d0: or byte [rbx], dh ; ror byte [rax-0x75], 0x74 ; and al, 0x10 ; ret ; (1 found)
0x2f2e6: or byte [rbx], dh ; shr al, cl ; retn 0xFD8E ; (1 found)
0x2f2e5: or byte [rbx], sil ; shr al, cl ; retn 0xFD8E ; (1 found)
0x85458: or byte [rcx+0x0B], al ; retn 0x8942 ; (1 found)
0x3b535: or byte [rcx+0x33], cl ; retn 0x0025 ; (1 found)
0x108cf: or byte [rcx+rax], ah ; ret ; (1 found)
0x7767d: or byte [rcx+rcx*4+0x08], al ; mov eax, r11d ; ret ; (1 found)
0xef84: or byte [rcx+rcx*4+0x75], al ; sbb al, 0xE8 ; retn 0x0009 ; (1 found)
0x2537c: or byte [rcx-0x01], al ; ret ; (1 found)
0x23e2a: or byte [rcx-0x01], al ; retn 0x8B48 ; (1 found)
0x23e29: or byte [rcx-0x01], r8L ; retn 0x8B48 ; (1 found)
0x77680: or byte [rcx-0x75], al ; ret ; (2 found)
0x90142: or byte [rcx-0x75], al ; retn 0x8B48 ; (2 found)
0x8aa87: or byte [rcx-0x75], al ; ror  [rax-0x75], 0x7C ; and al, 0x10 ; ret ; (1 found)
0x401b3: or byte [rcx-0x76], al ; ret ; (1 found)
0x4a292: or byte [rcx-0x76], al ; ror  [rax-0x75], 0x7C ; and al, 0x10 ; ret ; (1 found)
0x48252: or byte [rcx-0x7D], al ; cli ; push qword [rdx+rax-0x01] ; retn 0xC1FF ; (1 found)
0x30c2b: or byte [rcx], al ; add byte [rax], al ; ret ; (2 found)
0x3db72: or byte [rdi], cl ; mov bh, 0x42 ; or al, 0x3B ; ret ; (2 found)
0x1a6f2: or byte [rdi], cl ; test al, ah ; test eax, 0xC032FFFE ; ret ; (1 found)
0x49d5e: or byte [rdi], cl ; xchg eax, esp ; retn 0x3948 ; (1 found)
0x31b76: or byte [rdx-0x03511738], cl ; cld ; jmp qword [rbp+0x48] ; (1 found)
0x17203: or byte [rdx-0x09FCFEAC], cl ; retn 0x740F ; (2 found)
0x33429: or byte [rdx-0x3FCCBA3F], 0xEB ; or al, 0x8A ; ret ; (1 found)
0x362b7: or byte [rsi+0x45], ah ; mov  [rax+0x0E], ebx ; ret ; (1 found)
0x48e3: or ch, ch ; mov eax, eax ; ret ; (1 found)
0x32ae8: or ch, dh ; ret ; (1 found)
0x82b3c: or cl, al ; mov byte [r9], cl ; ret ; (1 found)
0x3db18: or cl, byte [r8-0x75] ; ret ; (1 found)
0x41f59: or cl, byte [rax+0x0F] ; ret ; (1 found)
0x29842: or cl, byte [rax-0x75] ; add byte [rax+0x3B], cl ; ret ; (1 found)
0x298b1: or cl, byte [rax-0x75] ; add byte [rax+0x3B], cl ; retn 0xEE75 ; (1 found)
0x3db19: or cl, byte [rax-0x75] ; ret ; (1 found)
0x3afaf: or cl, byte [rcx-0x7D] ; retn 0x8408 ; (1 found)
0x7f356: or cl, byte [rdi] ; test byte [rdx-0x7D000000], al ; call qword [rcx] ; (1 found)
0x215f4: or cl, ch ; or bh, byte [0xFFFFFFFFB71215FB] ; retn 0x8D48 ; (1 found)
0x82b6f: or cx, ax ; mov word [r9+0x06], cx ; ret ; (1 found)
0x7a1c2: or dh, al ; dec  [0x000000000006A060] ; xor eax, eax ; ret ; (1 found)
0x8d2e: or dh, dh ; ret ; (1 found)
0x2c1d4: or dil, dil ; adc eax, 0x000456E4 ; add rsp, 0x28 ; ret ; (1 found)
0x7e4a6: or dil, dil ; adc eax, 0xFFFF3412 ; add rsp, 0x28 ; ret ; (1 found)
0x23a77: or dil, dil ; retn 0xEAEB ; (1 found)
0x13ca5: or eax,  [rax] ; add byte [rax], al ; add rsp, 0x28 ; ret ; (4 found)
0x3ec29: or eax,  [rax] ; add byte [rax], al ; add rsp, 0x58 ; ret ; (1 found)
0x7ac8c: or eax,  [rax] ; add byte [rsi+0x3B], ah ; retn 0x1577 ; (2 found)
0x15b2a: or eax,  [rbx+0x0F4404FB] ; retn 0x8B41 ; (1 found)
0x477ae: or eax,  [rcx+0x0B] ; ret ; (1 found)
0x11745: or eax,  [rcx+0x0B] ; retn 0x4189 ; (1 found)
0x476dc: or eax,  [rcx+0x0B] ; retn 0x8941 ; (1 found)
0x46639: or eax,  [rcx-0x0080] ; shl byte [rax+0x44], 0x88 ; sbb byte [r11+0x028901C8], al ; ret ; (1 found)
0x23422: or eax,  [rcx-0x0A] ; ret ; (1 found)
0x47798: or eax,  [rcx-0x75] ; adc byte [rcx+0x0F], al ; xchg eax, ebp ; ret ; (1 found)
0x45a10: or eax, 0x00022513 ; movzx r8d, byte [rax+rcx] ; mov eax, r8d ; ret ; (1 found)
0x3f70d: or eax, 0x000261AE ; mov al, dl ; ret ; (1 found)
0x3005a: or eax, 0x0003A019 ; ret ; (1 found)
0x176e2: or eax, 0x00050551 ; mov  [rcx+0x000000B0], 0x00000000 ; ret ; (1 found)
0x14856: or eax, 0x000518F5 ; add rsp, 0x30 ; pop rdi ; ret ; (1 found)
0x1337a: or eax, 0x00051A41 ; add rax, rcx ; ret ; (1 found)
0x12c86: or eax, 0x00052DED ; mov al, r8L ; add rsp, 0x38 ; ret ; (1 found)
0x8efa: or eax, 0x0005ED99 ; ret ; (1 found)
0x4692: or eax, 0x00063911 ; mov rax, rcx ; ret ; (1 found)
0x14fb7: or eax, 0x008C81C6 ; add byte [rax], al ; add  [rcx-0x3FCC8BBF], ecx ; ret ; (1 found)
0x46642: or eax, 0x01 ; mov  [rdx], eax ; ret ; (2 found)
0x16df1: or eax, 0x0101C749 ; add byte [rax], al ; add byte [rax+0x08894901], dh ; ret ; (1 found)
0x2d6d5: or eax, 0x02 ; mov  [0x000000000006A0C4], eax ; ret ; (1 found)
0x4acc: or eax, 0x02 ; mov  [rcx+0x10], eax ; ret ; (1 found)
0x41c30: or eax, 0x04 ; mov  [rcx+0x08], eax ; lock or  [rsp+0x00], 0x00000000 ; ret ; (1 found)
0x46470: or eax, 0x10 ; mov  [rcx+0x10], eax ; ret ; (1 found)
0x465e8: or eax, 0x10 ; mov  [rdx+0x10], eax ; ret ; (1 found)
0x83a28: or eax, 0x288E8B48 ; add  [rax], eax ; add bh, bh ; ret ; (1 found)
0x362b0: or eax, 0x4518894D ; mov  [rax+0x08], ebx ; mov word [r8+0x0E], r11w ; ret ; (1 found)
0x3a8f: or eax, 0x48000000 ; add esp, 0x28 ; ret ; (1 found)
0x755f7: or eax, 0x48000000 ; add esp, 0x38 ; ret ; (2 found)
0x385af: or eax, 0x48000393 ; add esp, 0x28 ; ret ; (1 found)
0x23488: or eax, 0x48C00000 ; add esp, 0x00000080 ; pop rbx ; ret ; (1 found)
0x23663: or eax, 0x48C00000 ; add esp, 0x00000088 ; ret ; (1 found)
0x14065: or eax, 0x48C00000 ; add esp, 0x20 ; pop rbx ; ret ; (2 found)
0xbd0e: or eax, 0x48C00000 ; add esp, 0x20 ; pop rdi ; ret ; (2 found)
0x7b0b2: or eax, 0x48C00000 ; add esp, 0x28 ; ret ; (1 found)
0x473cf: or eax, 0x48FFFCB1 ; add esp, 0x28 ; ret ; (1 found)
0x7dfae: or eax, 0x83480000 ; ret ; (1 found)
0x15f7a: or eax, 0x8348C1FF ; retn 0x4138 ; (1 found)
0x10cf7: or eax, 0x8B000493 ; retn 0x8B48 ; (1 found)
0x162c2: or eax, 0x8B48C033 ; pop rsp ; and al, 0x08 ; ret ; (1 found)
0x8f026: or eax, 0x8BC00000 ; ret ; (3 found)
0x7f01f: or eax, 0xC0330874 ; add rsp, 0x20 ; pop rbx ; ret ; (1 found)
0x32558: or eax, 0xC3C00000 ; xor eax, eax ; ret ; (1 found)
0x1bf2b: or eax, 0xE9C00000 ; pop rbx ; retn 0xFFFE ; (1 found)
0x8805f: or eax, 0xFFF8ED7C ; mov qword [rax+0x50], rcx ; ret ; (1 found)
0x8c67d: or eax, 0xFFFD92C6 ; mov qword [rcx], rax ; add rsp, 0x38 ; ret ; (1 found)
0x86721: or eax, 0xFFFDE33A ; xor eax, eax ; add rsp, 0x28 ; ret ; (1 found)
0x7bc27: or eax, 0xFFFE902C ; mov qword [rdx], rcx ; ret ; (1 found)
0x8a131: or eax, 0xFFFEE18A ; mov qword [rax+0x00000098], rcx ; add rsp, 0x28 ; ret ; (1 found)
0x7a1c5: or eax, 0xFFFEFE96 ; xor eax, eax ; ret ; (1 found)
0x88079: or eax, 0xFFFF6442 ; mov qword [rax+0x00000130], rcx ; ret ; (1 found)
0x7b67b: or eax, 0xFFFFFFFF ; ret ; (7 found)
0x4714a: or eax, ecx ; mov  [rdi+0x10], r8d ; mov rdi, qword [rsp+0x18] ; ret ; (1 found)
0x7b487: or eax, ecx ; mov  [rdx+0x38], eax ; lock or  [rsp+0x00], r8d ; ret ; (1 found)
0x36ade: or eax, edi ; add rsp, 0x20 ; pop rdi ; ret ; (1 found)
0x67ee: or eax, edx ; add rsp, 0x28 ; ret ; (1 found)
0x476de: or eax, edx ; mov  [r11+0x10], eax ; add rsp, 0x28 ; ret ; (1 found)
0x11747: or eax, edx ; mov  [rcx+0x10], eax ; add rsp, 0x28 ; ret ; (1 found)
0x4f18: or eax, edx ; mov qword [0x0000000000065CC0], rax ; ret ; (1 found)
0x3b00e: or eax, edx ; mov qword [rcx], rax ; mov al, 0x01 ; ret ; (1 found)
0x4890: or eax, edx ; ret ; (4 found)
0x476dd: or eax, r10d ; mov  [r11+0x10], eax ; add rsp, 0x28 ; ret ; (1 found)
0x11746: or eax, r10d ; mov  [rcx+0x10], eax ; add rsp, 0x28 ; ret ; (1 found)
0x7b486: or eax, r9d ; mov  [rdx+0x38], eax ; lock or  [rsp+0x00], r8d ; ret ; (1 found)
0x819ca: or ebp, eax ; mov ah, 0x2D ; cld ; call qword [rax-0x0033CB17] ; (1 found)
0x14b62: or ebx, ebp ; scasb ; or eax, 0xFFFFFFFF ; ret ; (1 found)
0x88022: or ecx,  [rax-0x09] ; ror byte [rax-0x77], 1 ; add eax, 0xFFFDC86B ; ret ; (1 found)
0x49d5a: or ecx,  [rax-0x75] ; or byte [r15], cl ; xchg eax, esp ; retn 0x3948 ; (1 found)
0x418a: or ecx,  [rax-0x75] ; retn 0xC148 ; (1 found)
0x42218: or ecx,  [rcx-0x75] ; ror byte [rcx-0x09], 0xF1 ; imul rax, rcx ; ret ; (1 found)
0x477aa: or ecx,  [rdi] ; mov edx, 0x0B410BF0 ; ret ; (1 found)
0x11741: or ecx,  [rdi] ; mov edx, 0x0B410BF0 ; retn 0x4189 ; (1 found)
0x476d8: or ecx,  [rdi] ; mov edx, 0x0B410BF0 ; retn 0x8941 ; (1 found)
0x82b70: or ecx, eax ; mov word [r9+0x06], cx ; ret ; (1 found)
0x1ccac: or ecx, ebp ; iretq ; (1 found)
0x467f5: or ecx, edx ; mov  [r9+0x10], ecx ; add rsp, 0x28 ; ret ; (1 found)
0x467f4: or ecx, r10d ; mov  [r9+0x10], ecx ; add rsp, 0x28 ; ret ; (1 found)
0x7b66f: or edi,  [rdi+0x03] ; xor eax, eax ; ret ; (1 found)
0x338d2: or edi, edi ; ret ; (2 found)
0x352e4: or edi, esi ; jmp qword [rbp-0x75] ; (1 found)
0x3b442: or edx, 0x01 ; mov qword [r11], rdx ; ret ; (1 found)
0x464fe: or edx, eax ; mov  [r9+0x10], edx ; ret ; (2 found)
0x3b43f: or edx, eax ; or rdx, 0x01 ; mov qword [r11], rdx ; ret ; (1 found)
0x1211c: or edx, ecx ; mov  [r9+0x10], edx ; add rsp, 0x28 ; ret ; (1 found)
0x464fd: or edx, r8d ; mov  [r9+0x10], edx ; ret ; (2 found)
0x9000d: or esi,  [rdi+0x03] ; xor eax, eax ; ret ; (1 found)
0x7f4dc: or esi,  [rdi-0x75] ; ret ; (1 found)
0x3db15: or esp,  [rsi+0x21] ; or cl, byte [r8-0x75] ; ret ; (1 found)
0x8aeec: or r11L, spl ; add byte [rax], al ; add byte [rax-0x75], cl ; ret ; (1 found)
0x2845e: or r15L, dil ; retn 0x3B41 ; (1 found)
0x289c7: or r15L, dil ; retn 0xD63B ; (1 found)
0x23d6e: or r15L, r15L ; ret ; (2 found)
0x41c34: or r8L, sil ; or  [rsp+0x00], 0x00000000 ; ret ; (1 found)
0x47149: or r8d, ecx ; mov  [rdi+0x10], r8d ; mov rdi, qword [rsp+0x18] ; ret ; (1 found)
0x67ed: or rax, rdx ; add rsp, 0x28 ; ret ; (1 found)
0x4f17: or rax, rdx ; mov qword [0x0000000000065CC0], rax ; ret ; (1 found)
0x3b00d: or rax, rdx ; mov qword [rcx], rax ; mov al, 0x01 ; ret ; (1 found)
0x488f: or rax, rdx ; ret ; (4 found)
0x3b441: or rdx, 0x01 ; mov qword [r11], rdx ; ret ; (1 found)
0x3b43e: or rdx, rax ; or rdx, 0x01 ; mov qword [r11], rdx ; ret ; (1 found)
0x8d825: out 0x6B, eax ; clc ; call qword [rax-0x003EDB17] ; (1 found)
0x2d6da: out 0xC9, al ; add eax,  [rax] ; ret ; (1 found)
0x2c076: out 0xDF, al ; add eax,  [rax] ; mov eax, 0xC0000001 ; ret ; (1 found)
0x40431: out 0xFF, al ; dec  [rax-0x75] ; ret ; (1 found)
0x350e6: out 0xFF, eax ; ret ; (1 found)
0x40fc8: out dx, al ; mov eax, 0x00000001 ; ret ; (1 found)
0x4b37: out dx, al ; mov edx, 0x00000071 ; in al, dx ; ret ; (1 found)
0x47b5: out dx, al ; ret ; (4 found)
0x88675: out dx, al ; std ; jmp qword [rsi-0x39] ; (1 found)
0x8ecb: out dx, al ; xor eax, eax ; ret ; (5 found)
0x41039: out dx, ax ; mov eax, 0x00000002 ; ret ; (1 found)
0x47d5: out dx, ax ; ret ; (1 found)
0x19e36: out dx, eax ; add ch, cl ; ret ; (1 found)
0x15299: out dx, eax ; add rsp, 0x28 ; ret ; (1 found)
0x32f54: out dx, eax ; add rsp, 0x38 ; ret ; (1 found)
0x4103a: out dx, eax ; mov eax, 0x00000002 ; ret ; (1 found)
0x40fff: out dx, eax ; mov eax, 0x00000004 ; ret ; (1 found)
0x47c5: out dx, eax ; ret ; (3 found)
0x813ab: outsb ; clc ; call qword [rax-0x00380017] ; (1 found)
0x1bf97: outsb ; ret ; (1 found)
0x17cb3: outsb ; retn 0x160F ; (1 found)
0xc825: outsd ; adc al, 0x01 ; add byte [rcx-0x76], al ; retn 0x8B48 ; (1 found)
0x8200d: outsd ; adc bl, bh ; call qword [rax-0x00331A17] ; (1 found)
0x8d968: outsd ; std ; jmp qword [rsi+0x00] ; (1 found)
0x82807: paddb mm1, mm0 ; movd eax, xmm1 ; ret ; (1 found)
0x82806: paddb xmm1, xmm0 ; movd eax, xmm1 ; ret ; (1 found)
0x17d1f: pcmpeqb mm0, qword [rsi] ; movups  [rcx+r8-0x10], xmm0 ; ret ; (1 found)
0x7b322: pop r12 ; pop rbp ; ret ; (8 found)
0x3675: pop r12 ; pop rdi ; pop rbp ; ret ; (5 found)
0x1590: pop r12 ; pop rdi ; pop rcx ; ret ; (2 found)
0x76f49: pop r12 ; pop rdi ; pop rsi ; ret ; (9 found)
0x770a5: pop r12 ; pop rdi ; ret ; (57 found)
0x26535: pop r12 ; pop rsi ; pop rbp ; ret ; (1 found)
0x5b78: pop r12 ; pop rsi ; ret ; (2 found)
0x77206: pop r12 ; ret ; (40 found)
0x7b320: pop r13 ; pop r12 ; pop rbp ; ret ; (8 found)
0x770a3: pop r13 ; pop r12 ; pop rdi ; ret ; (55 found)
0x5b76: pop r13 ; pop r12 ; pop rsi ; ret ; (2 found)
0x89fbc: pop r13 ; pop r12 ; ret ; (3 found)
0xf351: pop r13 ; pop rbp ; ret ; (1 found)
0x77cc1: pop r13 ; pop rdi ; pop rbp ; ret ; (2 found)
0x45653: pop r13 ; pop rdi ; pop rsi ; ret ; (1 found)
0x8f333: pop r13 ; ret ; (5 found)
0x2df3: pop r14 ; pop r12 ; pop rdi ; ret ; (2 found)
0x77204: pop r14 ; pop r12 ; ret ; (37 found)
0x89fba: pop r14 ; pop r13 ; pop r12 ; ret ; (2 found)
0xf34f: pop r14 ; pop r13 ; pop rbp ; ret ; (1 found)
0x8f331: pop r14 ; pop r13 ; ret ; (5 found)
0x75701: pop r14 ; pop rbp ; ret ; (7 found)
0x753b: pop r14 ; pop rcx ; ret ; (1 found)
0x7dc3c: pop r14 ; pop rdi ; pop rbp ; ret ; (1 found)
0x7511b: pop r14 ; pop rdi ; pop rsi ; ret ; (22 found)
0x779c6: pop r14 ; pop rdi ; ret ; (59 found)
0x7a083: pop r14 ; pop rsi ; pop rbp ; ret ; (1 found)
0x1a16: pop r14 ; pop rsi ; ret ; (1 found)
0x7634a: pop r14 ; ret ; (75 found)
0x7fec: pop r15 ; pop r13 ; pop r12 ; ret ; (1 found)
0x77202: pop r15 ; pop r14 ; pop r12 ; ret ; (42 found)
0x8f32f: pop r15 ; pop r14 ; pop r13 ; ret ; (5 found)
0x756ff: pop r15 ; pop r14 ; pop rbp ; ret ; (7 found)
0x7539: pop r15 ; pop r14 ; pop rcx ; ret ; (1 found)
0x779c3: pop r15 ; pop r14 ; pop rdi ; ret ; (67 found)
0x1a13: pop r15 ; pop r14 ; pop rsi ; ret ; (2 found)
0x588e: pop r15 ; pop r14 ; ret ; (3 found)
0xfb86: pop r15 ; pop rdi ; pop rbp ; ret ; (1 found)
0x77de5: pop r15 ; ret ; (17 found)
0x3ced: pop rax ; add  [rcx+0x3B], eax ; adc dh, byte [rdx+rcx+0x03] ; ret ; (1 found)
0x1027c: pop rax ; add  [rcx-0x75], eax ; ret ; (1 found)
0x2476a: pop rax ; add byte [rbp-0x75], al ; ret ; (1 found)
0x11470: pop rax ; add rsp, 0x20 ; pop rbx ; ret ; (3 found)
0x46011: pop rax ; add rsp, 0x20 ; pop rdi ; ret ; (1 found)
0x7e322: pop rax ; add rsp, 0x30 ; pop r14 ; ret ; (9 found)
0x7dd2e: pop rax ; add rsp, 0x30 ; pop rdi ; ret ; (6 found)
0x3cbce: pop rax ; add rsp, 0x40 ; pop rbp ; ret ; (1 found)
0x1186: pop rax ; add rsp, 0x40 ; pop rdi ; ret ; (3 found)
0x20598: pop rax ; and al, 0xFF ; jmp qword [rsi+0x03] ; (1 found)
0x362b6: pop rax ; or byte [rsi+0x45], ah ; mov  [rax+0x0E], ebx ; ret ; (1 found)
0x2ba9: pop rax ; pop rdi ; pop rsi ; ret ; (2 found)
0x362bb: pop rax ; push cs ; ret ; (1 found)
0x7b64e: pop rax ; ret ; (8 found)
0x154ac: pop rax ; retn 0x0005 ; (1 found)
0x3f10: pop rax ; sub bl, ch ; ret ; (1 found)
0x8a735: pop rbp ; add al, 0x8B ; ret ; (1 found)
0x1c123: pop rbp ; mov  [0x85F88BFFFF45B2E8], eax ; sar byte [rax+0x5D], 0x8B ; ret ; (1 found)
0x7b321: pop rbp ; pop r12 ; pop rbp ; ret ; (8 found)
0x770a4: pop rbp ; pop r12 ; pop rdi ; ret ; (55 found)
0x5b77: pop rbp ; pop r12 ; pop rsi ; ret ; (2 found)
0x89fbd: pop rbp ; pop r12 ; ret ; (3 found)
0xf352: pop rbp ; pop rbp ; ret ; (1 found)
0x212e: pop rbp ; pop rbx ; pop rcx ; ret ; (4 found)
0x7662a: pop rbp ; pop rbx ; ret ; (20 found)
0x30a1: pop rbp ; pop rcx ; ret ; (2 found)
0x77cc2: pop rbp ; pop rdi ; pop rbp ; ret ; (2 found)
0x45654: pop rbp ; pop rdi ; pop rsi ; ret ; (1 found)
0x7551c: pop rbp ; ret ; (168 found)
0x3a0ef: pop rbp ; xor byte [rax-0x01], cl ; ret ; (1 found)
0x3a066: pop rbp ; xor byte [rax-0x75], cl ; ret ; (1 found)
0x4299c: pop rbx ; add esp,  [rsi+0x3B] ; ret ; (1 found)
0x601d: pop rbx ; pop rbp ; pop rcx ; ret ; (1 found)
0x75d34: pop rbx ; pop rbp ; ret ; (20 found)
0x212f: pop rbx ; pop rcx ; ret ; (5 found)
0x75269: pop rbx ; ret ; (226 found)
0x1bf30: pop rbx ; retn 0xFFFE ; (1 found)
0x76bc4: pop rcx ; add  [rax-0x7B], ecx ; ror byte [rdi], 0x84 ; ret ; (1 found)
0x7767c: pop rcx ; or byte [rcx+rcx*4+0x08], al ; mov eax, r11d ; ret ; (1 found)
0x7daa2: pop rcx ; ret ; (29 found)
0x155e1: pop rcx ; rol byte [rax], 0x00 ; mov al, r8L ; ret ; (1 found)
0xae00: pop rdi ; add  [rax], eax ; mov eax, 0x00000001 ; ret ; (1 found)
0x7fed: pop rdi ; pop r13 ; pop r12 ; ret ; (1 found)
0x77203: pop rdi ; pop r14 ; pop r12 ; ret ; (37 found)
0x8f330: pop rdi ; pop r14 ; pop r13 ; ret ; (5 found)
0x75700: pop rdi ; pop r14 ; pop rbp ; ret ; (7 found)
0x753a: pop rdi ; pop r14 ; pop rcx ; ret ; (1 found)
0x779c5: pop rdi ; pop r14 ; pop rdi ; ret ; (59 found)
0x1a15: pop rdi ; pop r14 ; pop rsi ; ret ; (1 found)
0x588f: pop rdi ; pop r14 ; ret ; (3 found)
0x77cc3: pop rdi ; pop rbp ; ret ; (9 found)
0x82c4d: pop rdi ; pop rbx ; pop rbp ; ret ; (2 found)
0x25b4: pop rdi ; pop rbx ; pop rcx ; ret ; (1 found)
0x411b0: pop rdi ; pop rbx ; ret ; (1 found)
0x1592: pop rdi ; pop rcx ; ret ; (2 found)
0xfb87: pop rdi ; pop rdi ; pop rbp ; ret ; (1 found)
0x75979: pop rdi ; pop rsi ; pop rbp ; ret ; (65 found)
0x6ced: pop rdi ; pop rsi ; pop rbx ; ret ; (4 found)
0x7daa0: pop rdi ; pop rsi ; pop rcx ; ret ; (4 found)
0x7511d: pop rdi ; pop rsi ; ret ; (34 found)
0x751ff: pop rdi ; ret ; (559 found)
0x1b999: pop rdi ; retn 0x0004 ; (1 found)
0x439d: pop rdx ; add al, 0xEB ; retn 0x8944 ; (1 found)
0x253ad: pop rdx ; and byte [rax-0x75], cl ; ret ; (1 found)
0x77e95: pop rdx ; std ; dec  [rax-0x75] ; ret ; (1 found)
0x2df4: pop rsi ; pop r12 ; pop rdi ; ret ; (2 found)
0x77205: pop rsi ; pop r12 ; ret ; (37 found)
0x89fbb: pop rsi ; pop r13 ; pop r12 ; ret ; (2 found)
0xf350: pop rsi ; pop r13 ; pop rbp ; ret ; (1 found)
0x8f332: pop rsi ; pop r13 ; ret ; (5 found)
0x76629: pop rsi ; pop rbp ; pop rbx ; ret ; (20 found)
0x30a0: pop rsi ; pop rbp ; pop rcx ; ret ; (1 found)
0x75702: pop rsi ; pop rbp ; ret ; (73 found)
0x7d0f1: pop rsi ; pop rbx ; pop rbp ; ret ; (17 found)
0x6cee: pop rsi ; pop rbx ; ret ; (4 found)
0x7daa1: pop rsi ; pop rcx ; ret ; (5 found)
0x7dc3d: pop rsi ; pop rdi ; pop rbp ; ret ; (1 found)
0x7511c: pop rsi ; pop rdi ; pop rsi ; ret ; (22 found)
0x779c7: pop rsi ; pop rdi ; ret ; (59 found)
0x7a084: pop rsi ; pop rsi ; pop rbp ; ret ; (1 found)
0x1a17: pop rsi ; pop rsi ; ret ; (1 found)
0x7511e: pop rsi ; ret ; (114 found)
0x401b1: pop rsp ; and al, 0x08 ; mov al, r11L ; ret ; (1 found)
0x5ddb: pop rsp ; and al, 0x08 ; mov al, r8L ; ret ; (1 found)
0x32d63: pop rsp ; and al, 0x08 ; mov byte [r9+0x13], al ; ret ; (1 found)
0x3db8f: pop rsp ; and al, 0x08 ; mov rax, r8 ; ret ; (2 found)
0x2f879: pop rsp ; and al, 0x08 ; mov rdi, qword [rsp+0x10] ; ret ; (5 found)
0x7bea6: pop rsp ; and al, 0x08 ; ret ; (7 found)
0x7b323: pop rsp ; pop rbp ; ret ; (8 found)
0x3676: pop rsp ; pop rdi ; pop rbp ; ret ; (5 found)
0x1591: pop rsp ; pop rdi ; pop rcx ; ret ; (2 found)
0x76f4a: pop rsp ; pop rdi ; pop rsi ; ret ; (9 found)
0x770a6: pop rsp ; pop rdi ; ret ; (57 found)
0x26536: pop rsp ; pop rsi ; pop rbp ; ret ; (1 found)
0x5b79: pop rsp ; pop rsi ; ret ; (2 found)
0x77207: pop rsp ; ret ; (41 found)
0x37b6d: popfq ; add eax,  [rax] ; add rsp, 0x38 ; ret ; (2 found)
0x352e3: popfq ; or edi, esi ; jmp qword [rbp-0x75] ; (1 found)
0x82801: psrldq xmm0, 0x01 ; paddb xmm1, xmm0 ; movd eax, xmm1 ; ret ; (1 found)
0x1253e: psubsb mm5, qword [rcx+rax+0x00] ; add byte [rax+0x00000001], bh ; add rsp, 0x28 ; ret ; (1 found)
0x3b9f: push 0x40C48348 ; pop r14 ; ret ; (4 found)
0x10fc: push 0x40C48348 ; pop r15 ; ret ; (6 found)
0xa8ee: push 0x40C48348 ; pop rbp ; ret ; (1 found)
0x7acd6: push 0x40C48348 ; pop rdi ; ret ; (5 found)
0x43e72: push 0x48000001 ; add esp, 0x00000140 ; pop rdi ; ret ; (1 found)
0x12074: push 0x48000004 ; add esp, 0x20 ; pop rbx ; ret ; (1 found)
0x9e54: push 0x4800067A ; add esp, 0x28 ; ret ; (1 found)
0x11c70: push 0x48144189 ; add esp, 0x28 ; ret ; (2 found)
0x7f0c9: push 0x50C48348 ; pop rbp ; ret ; (2 found)
0x40e1a: push 0x50C48348 ; pop rdi ; ret ; (1 found)
0x9fc8: push 0xC0330001 ; ret ; (1 found)
0x35e92: push 0xE8000001 ; test eax, 0x48FFFFC1 ; add esp, 0x28 ; ret ; (1 found)
0x45f85: push 0xFCCA68E8 ; jmp qword [rsi-0x77] ; (2 found)
0x39342: push 0xFDE8F7E8 ; jmp qword [rcx] ; (2 found)
0x89bd2: push 0xFFFFFFE1 ; std ; dec  [rax-0x75] ; ret ; (1 found)
0x113a8: push cs ; add byte [rax], al ; add rsp, 0x28 ; ret ; (2 found)
0x8dec2: push cs ; cli ; call qword [rax-0x0029FF17] ; (1 found)
0x8dedc: push cs ; cli ; call qword [rax-0x002A0A17] ; (2 found)
0x30c20: push cs ; mov qword [rcx+0x000000FC], rax ; mov qword [rcx+0x00000108], rax ; ret ; (1 found)
0x7b4b3: push cs ; mov qword [rcx+0x18], rax ; lock or  [rsp+0x00], 0x00000000 ; ret ; (2 found)
0x362bc: push cs ; ret ; (1 found)
0x1641d: push cs ; sbb eax,  [0xFFFFFFFFC0346424] ; ret ; (1 found)
0x1794a: push qword [r13-0x0E] ; mov rax, r11 ; ret ; (1 found)
0x7f14c: push qword [rax+rbx-0x0A] ; ret ; (1 found)
0x170c1: push qword [rbp+0x01] ; ret ; (1 found)
0x1794b: push qword [rbp-0x0E] ; mov rax, r11 ; ret ; (1 found)
0x48256: push qword [rdx+rax-0x01] ; retn 0xC1FF ; (1 found)
0x816d8: push qword [rsp+rdi-0x75] ; ret ; (1 found)
0x15448: push r10 ; mov word [rcx+0x3A], ax ; ret ; (1 found)
0x181b0: push r8 ; add rax, qword [rcx+0x48] ; ret ; (1 found)
0x34076: push rax ; add byte [rax-0x75], cl ; retn 0x45EB ; (1 found)
0x33d73: push rax ; add byte [rax-0x75], cl ; retn 0x4EEB ; (1 found)
0x34dec: push rax ; add byte [rax-0x75], cl ; retn 0xC148 ; (1 found)
0x16525: push rax ; add ecx, r8d ; mov  [rdx], ecx ; ret ; (1 found)
0x181b1: push rax ; add rax, qword [rcx+0x48] ; ret ; (1 found)
0x2ce9b: push rax ; add rsp, 0x30 ; pop r14 ; ret ; (2 found)
0x3f7d2: push rax ; add rsp, 0x30 ; pop rbp ; ret ; (1 found)
0x7a38c: push rax ; add rsp, 0x30 ; pop rdi ; ret ; (26 found)
0x7f2fe: push rax ; add rsp, 0x40 ; pop rbp ; ret ; (1 found)
0x86816: push rax ; add rsp, 0x40 ; pop rdi ; ret ; (11 found)
0x41ffc: push rax ; add rsp, 0x40 ; pop rsi ; ret ; (1 found)
0x9c77: push rax ; dec byte [rdi] ; retn 0xB70F ; (1 found)
0x84432: push rax ; pop r14 ; ret ; (2 found)
0x7f0cd: push rax ; pop rbp ; ret ; (5 found)
0x7a47c: push rax ; pop rbx ; ret ; (4 found)
0x7e16d: push rax ; pop rdi ; ret ; (7 found)
0x88066: push rax ; ret ; (2 found)
0x2c071: push rax ; xadd  [0x000000000006A060], eax ; mov eax, 0xC0000001 ; ret ; (1 found)
0x28173: push rax ; xor byte [rax-0x75], cl ; retn 0xE083 ; (1 found)
0x35afc: push rbp ; add byte [rcx-0x75], al ; retn 0x08EB ; (1 found)
0x1db7a: push rbp ; fisttp  [rbx-0x72B7A3BD] ; iretq ; (1 found)
0x8ba32: push rbp ; ret ; (1 found)
0x396ef: push rbp ; retn 0x0002 ; (1 found)
0x2ae57: push rbp ; retn 0xFFFE ; (1 found)
0x3efa7: push rbp ; xchg  [rax+0x33], ecx ; ret ; (1 found)
0x795a5: push rbx ; add eax, ebp ; cld ; ret ; (1 found)
0x1c08d: push rbx ; mov ebx, 0x8B4C0004 ; ret ; (1 found)
0x153c5: push rbx ; retn 0x0000 ; (1 found)
0x80ed1: push rbx ; retn 0xFFFF ; (1 found)
0x32e36: push rcx ; adc bh, dh ; retn 0xFFF8 ; (1 found)
0x8def9: push rcx ; fdivr st0, st7 ; jmp qword [rsi+0x44] ; (1 found)
0x48e2: push rcx ; or ch, ch ; mov eax, eax ; ret ; (1 found)
0x7e340: push rcx ; retn 0xFF48 ; (1 found)
0x1172f: push rcx ; sbb  [rbx+0x0F411041], ecx ; xchg eax, ebp ; retn 0xE083 ; (1 found)
0x80a36: push rcx ; stc ; jmp qword [rcx] ; (1 found)
0xf71d: push rdi ; add  [rax], eax ; add byte [rbx], ah ; retn 0x2C8D ; (1 found)
0x78782: push rdi ; sub byte [rdi], cl ; mov edx, 0x820F1EE2 ; iretq ; (1 found)
0x7f805: push rdi ; test esi, edi ; jmp qword [rcx] ; (1 found)
0x8f642: push rdx ; add al, 0x0F ; retn 0x3B44 ; (1 found)
0x23e4c: push rdx ; and byte [rax-0x75], cl ; ret ; (1 found)
0x15449: push rdx ; mov word [rcx+0x3A], ax ; ret ; (1 found)
0x24f79: push rdx ; or bl, ch ; in eax, 0xFF ; ret ; (1 found)
0x78186: push rdx ; ret ; (1 found)
0x1000b: push rdx ; xor byte [rax-0x7D], cl ; retn 0x4C38 ; (2 found)
0x21284: push rdx ; xor byte [rdi], cl ; scasd ; ret ; (1 found)
0x50d6: push rsi ; add  [rax], eax ; mov al, 0x01 ; ret ; (1 found)
0x2c1d9: push rsi ; add al, 0x00 ; add rsp, 0x28 ; ret ; (2 found)
0x7bd07: push rsi ; or byte [rax-0x7D], cl ; retn 0xE814 ; (1 found)
0x41f58: push rsi ; or cl, byte [rax+0x0F] ; ret ; (1 found)
0x3571a: push rsi ; ret ; (1 found)
0x800aa: push rsi ; stc ; jmp qword [rbp+0x48] ; (2 found)
0x4f58: push rsp ; add  [rax], eax ; add rsp, 0x28 ; ret ; (1 found)
0x17c83: push rsp ; add eax, edi ; ret ; (1 found)
0x8d781: push rsp ; retn 0xFFFF ; (1 found)
0x2f108: pushfq ; std ; jmp qword [rsi+0x0B] ; (2 found)
0x1719a: pushfq ; xor al, al ; ret ; (1 found)
0x8bc6b: rcl  [fs:rax], 1 ; add byte [rcx-0x01], al ; retn 0x4489 ; (1 found)
0x170bb: rcl  [rax], 0x66 ; test ecx, 0x0175FFFF ; ret ; (1 found)
0x8bc6c: rcl  [rax], 1 ; add byte [rcx-0x01], al ; retn 0x4489 ; (1 found)
0x2dc82: rcr  [0x000000000006755D], 0xFFFFFFFF ; ret ; (1 found)
0x32551: rcr  [rax], 0x3B ; retn 0xF172 ; (1 found)
0x7bafb: rcr  [rbp-0x01], 0xFFFFFFFF ; add rsp, 0x00000000000000B8 ; ret ; (1 found)
0x173b0: rcr  [rbx], 0xFFFFFFC0 ; sbb eax, 0xFFFFFFFF ; ret ; (1 found)
0x6466: rcr byte [rax], 0xFF ; ret ; (2 found)
0x4889: rdmsr ; shl rdx, 0x20 ; or rax, rdx ; ret ; (2 found)
0x42478: rdtsc ; shl rdx, 0x20 ; or rax, rdx ; ret ; (1 found)
0x49c0: rdtscp ; shl rdx, 0x20 ; or rax, rdx ; ret ; (1 found)
0x1352e: rep stosd ; add rsp, 0x20 ; pop rdi ; ret ; (1 found)
0x75021: ret ; (2831 found)
0x80e1a: retn 0x0000 ; (22 found)
0x102fa: retn 0x0001 ; (6 found)
0x4470: retn 0x0002 ; (4 found)
0x192e0: retn 0x0003 ; (10 found)
0x446a: retn 0x0004 ; (8 found)
0x832ab: retn 0x0005 ; (3 found)
0xef8a: retn 0x0009 ; (1 found)
0x271fe: retn 0x000D ; (1 found)
0x11ab6: retn 0x000E ; (1 found)
0x89136: retn 0x000F ; (1 found)
0x1699d: retn 0x0025 ; (5 found)
0x8a988: retn 0x0032 ; (1 found)
0x135e: retn 0x003D ; (2 found)
0x22a1e: retn 0x0055 ; (1 found)
0x46a3a: retn 0x0080 ; (1 found)
0x841c8: retn 0x0098 ; (2 found)
0xe07a: retn 0x009B ; (1 found)
0x839bc: retn 0x00A8 ; (2 found)
0x429b9: retn 0x00B9 ; (2 found)
0x81925: retn 0x00BA ; (3 found)
0x4556c: retn 0x00BF ; (1 found)
0xc126: retn 0x00E0 ; (2 found)
0x21e66: retn 0x0100 ; (2 found)
0xdbf6: retn 0x0109 ; (1 found)
0x980e: retn 0x0132 ; (1 found)
0x4a26c: retn 0x018A ; (1 found)
0x18e7f: retn 0x01A8 ; (2 found)
0x23d3b: retn 0x01BA ; (2 found)
0xb996: retn 0x0204 ; (2 found)
0x41662: retn 0x0241 ; (1 found)
0x8ffbd: retn 0x0273 ; (1 found)
0x1c43e: retn 0x0283 ; (1 found)
0x6568: retn 0x02B9 ; (1 found)
0x300c0: retn 0x02BA ; (1 found)
0x377c2: retn 0x02E1 ; (1 found)
0x1bd8a: retn 0x0330 ; (1 found)
0x14b57: retn 0x0341 ; (3 found)
0x1332a: retn 0x0344 ; (1 found)
0x8cc22: retn 0x0348 ; (9 found)
0x6686: retn 0x0349 ; (2 found)
0x8924b: retn 0x034C ; (1 found)
0x806f0: retn 0x0350 ; (2 found)
0x17d2: retn 0x0373 ; (2 found)
0x3a4b0: retn 0x0375 ; (2 found)
0x8f68f: retn 0x03EB ; (1 found)
0x2ea22: retn 0x0429 ; (1 found)
0x2c5d2: retn 0x044A ; (1 found)
0x1ebd3: retn 0x0491 ; (1 found)
0x277ea: retn 0x0499 ; (1 found)
0x1c02a: retn 0x04BC ; (2 found)
0x19422: retn 0x04E8 ; (2 found)
0x3d21b: retn 0x04EB ; (1 found)
0x16842: retn 0x04F5 ; (1 found)
0x10e9e: retn 0x054D ; (1 found)
0x1bf8a: retn 0x0553 ; (1 found)
0x1b14a: retn 0x0563 ; (1 found)
0x1efd2: retn 0x0572 ; (1 found)
0x1687a: retn 0x0574 ; (1 found)
0x21bb6: retn 0x0575 ; (1 found)
0x19d62: retn 0x0576 ; (1 found)
0x1024a: retn 0x057A ; (1 found)
0x18b8a: retn 0x0587 ; (1 found)
0x7e755: retn 0x0588 ; (6 found)
0x224f7: retn 0x058B ; (1 found)
0x16cb2: retn 0x05A8 ; (1 found)
0x22507: retn 0x05EB ; (2 found)
0x712a: retn 0x060B ; (1 found)
0x20aa: retn 0x067F ; (1 found)
0x78446: retn 0x06EB ; (5 found)
0x3c37e: retn 0x0773 ; (1 found)
0x83f0c: retn 0x0776 ; (1 found)
0xfa96: retn 0x0788 ; (1 found)
0x45385: retn 0x0800 ; (1 found)
0x3ac79: retn 0x0874 ; (1 found)
0x35556: retn 0x0889 ; (1 found)
0x35b00: retn 0x08EB ; (1 found)
0x3a4a9: retn 0x0A75 ; (1 found)
0x9f99: retn 0x0B41 ; (2 found)
0x362f5: retn 0x0B48 ; (2 found)
0x3be58: retn 0x0B49 ; (3 found)
0x410eb: retn 0x0B66 ; (1 found)
0x43b77: retn 0x0BEB ; (1 found)
0x25e3c: retn 0x0C74 ; (1 found)
0x16302: retn 0x0C75 ; (1 found)
0x18f1b: retn 0x0D48 ; (2 found)
0x429c4: retn 0x0D75 ; (1 found)
0x423eb: retn 0x0D77 ; (1 found)
0x4f4a: retn 0x0E75 ; (1 found)
0x6842: retn 0x0F01 ; (1 found)
0x68f7: retn 0x0F02 ; (2 found)
0x1b3ac: retn 0x0F04 ; (1 found)
0x3d798: retn 0x0F10 ; (1 found)
0x3f2e9: retn 0x0F20 ; (1 found)
0x8fa1d: retn 0x0F28 ; (1 found)
0x47087: retn 0x0F40 ; (2 found)
0x82b6a: retn 0x0F41 ; (4 found)
0x76c83: retn 0x0F44 ; (4 found)
0x2459a: retn 0x0F45 ; (2 found)
0x81958: retn 0x0F48 ; (3 found)
0x8d357: retn 0x0F49 ; (3 found)
0x1716: retn 0x0F4D ; (1 found)
0x3d6f6: retn 0x0F74 ; (1 found)
0x58be: retn 0x0FBA ; (1 found)
0x778c9: retn 0x0FFF ; (10 found)
0x55b2: retn 0x1000 ; (3 found)
0x89a37: retn 0x1023 ; (6 found)
0x2b397: retn 0x109E ; (1 found)
0x44a9: retn 0x1474 ; (1 found)
0x4537a: retn 0x14EB ; (1 found)
0x7ac92: retn 0x1577 ; (1 found)
0x79202: retn 0x15FF ; (6 found)
0x17cb4: retn 0x160F ; (1 found)
0x3dffe: retn 0x1674 ; (1 found)
0x25f60: retn 0x1774 ; (1 found)
0x166f4: retn 0x1776 ; (1 found)
0x8e83: retn 0x1876 ; (1 found)
0x256ec: retn 0x1A75 ; (1 found)
0x3af8f: retn 0x1B48 ; (1 found)
0x8f58d: retn 0x1C77 ; (1 found)
0x3b116: retn 0x1F24 ; (1 found)
0x469be: retn 0x20B9 ; (2 found)
0x8fef3: retn 0x2177 ; (1 found)
0x3541f: retn 0x2274 ; (1 found)
0xc66f: retn 0x2307 ; (1 found)
0x83f2c: retn 0x2348 ; (9 found)
0x3b93e: retn 0x234C ; (4 found)
0x3634e: retn 0x2366 ; (2 found)
0x3469b: retn 0x2548 ; (2 found)
0x2c772: retn 0x2574 ; (1 found)
0xce06: retn 0x2710 ; (1 found)
0x3a7c4: retn 0x2974 ; (1 found)
0x1801f: retn 0x2A73 ; (1 found)
0x7b16: retn 0x2B41 ; (1 found)
0x95fa: retn 0x2B48 ; (4 found)
0x42204: retn 0x2B4C ; (1 found)
0x918d: retn 0x2B66 ; (1 found)
0x96fe: retn 0x2C74 ; (1 found)
0x21114: retn 0x2C77 ; (1 found)
0xf722: retn 0x2C8D ; (1 found)
0x45366: retn 0x2D75 ; (1 found)
0x32c9e: retn 0x330C ; (2 found)
0x32cfd: retn 0x3318 ; (2 found)
0x1239b: retn 0x3341 ; (1 found)
0x1bfa: retn 0x3345 ; (4 found)
0x3c759: retn 0x3348 ; (1 found)
0x429e7: retn 0x3375 ; (1 found)
0x7a63: retn 0x33C3 ; (1 found)
0x21147: retn 0x35E9 ; (1 found)
0x35a9: retn 0x3675 ; (1 found)
0x7820c: retn 0x3881 ; (1 found)
0x8d061: retn 0x3941 ; (2 found)
0x256c1: retn 0x3948 ; (2 found)
0x122eb: retn 0x3A40 ; (1 found)
0x8cb95: retn 0x3B04 ; (2 found)
0x1f564: retn 0x3B38 ; (1 found)
0x77406: retn 0x3B41 ; (4 found)
0x8f645: retn 0x3B44 ; (4 found)
0x8c968: retn 0x3B45 ; (2 found)
0x8f713: retn 0x3B48 ; (4 found)
0x8fec7: retn 0x3B49 ; (4 found)
0x5dc6: retn 0x3B4C ; (2 found)
0x8f487: retn 0x3B4D ; (2 found)
0x123fc: retn 0x3B66 ; (1 found)
0x82ee4: retn 0x3C7E ; (1 found)
0x2c8b9: retn 0x3C8D ; (1 found)
0x3b0a3: retn 0x4008 ; (1 found)
0x90123: retn 0x4102 ; (1 found)
0x1d3bf: retn 0x4106 ; (1 found)
0x48324: retn 0x4110 ; (1 found)
0x32be4: retn 0x4114 ; (1 found)
0x1005b: retn 0x4138 ; (2 found)
0x1524b: retn 0x4166 ; (5 found)
0x11748: retn 0x4189 ; (2 found)
0x2ed3b: retn 0x41C6 ; (1 found)
0x8feae: retn 0x430F ; (1 found)
0x3361d: retn 0x4389 ; (4 found)
0x3b4d3: retn 0x4404 ; (1 found)
0x88823: retn 0x4410 ; (2 found)
0x1fcfb: retn 0x4418 ; (1 found)
0x114b0: retn 0x441C ; (1 found)
0x88c25: retn 0x442C ; (1 found)
0x24868: retn 0x4450 ; (1 found)
0x2c8b0: retn 0x4466 ; (1 found)
0x8bc71: retn 0x4489 ; (1 found)
0x35959: retn 0x44C6 ; (1 found)
0x37d15: retn 0x44C7 ; (1 found)
0x8f7cb: retn 0x44FF ; (1 found)
0x89e6a: retn 0x4502 ; (1 found)
0x28d2b: retn 0x4506 ; (1 found)
0x1db15: retn 0x4508 ; (2 found)
0x341ce: retn 0x4510 ; (2 found)
0x8e90: retn 0x4518 ; (1 found)
0x2d3b7: retn 0x4538 ; (1 found)
0x1f832: retn 0x4589 ; (1 found)
0x14b5a: retn 0x45C3 ; (1 found)
0x1ea70: retn 0x45C7 ; (1 found)
0x196ed: retn 0x45E0 ; (1 found)
0x3407a: retn 0x45EB ; (1 found)
0x8fe4f: retn 0x460F ; (3 found)
0x20197: retn 0x47C7 ; (2 found)
0x11583: retn 0x4806 ; (2 found)
0x8979a: retn 0x4807 ; (1 found)
0x83e93: retn 0x4808 ; (1 found)
0x20f5b: retn 0x4810 ; (1 found)
0x880e6: retn 0x4818 ; (1 found)
0x111df: retn 0x481C ; (1 found)
0x6f73: retn 0x4838 ; (2 found)
0xf497: retn 0x4858 ; (1 found)
0x2818d: retn 0x4908 ; (1 found)
0x3417c: retn 0x4910 ; (3 found)
0x8b896: retn 0x4914 ; (1 found)
0x8550f: retn 0x4938 ; (1 found)
0x42533: retn 0x4948 ; (1 found)
0x32d35: retn 0x4A02 ; (2 found)
0xfe34: retn 0x4C10 ; (1 found)
0x3dd04: retn 0x4C16 ; (1 found)
0x4a6d3: retn 0x4C22 ; (1 found)
0x1000f: retn 0x4C38 ; (2 found)
0x14255: retn 0x4DE8 ; (1 found)
0x33d77: retn 0x4EEB ; (1 found)
0x15253: retn 0x4F76 ; (1 found)
0x7a336: retn 0x4F8B ; (1 found)
0x112a7: retn 0x5189 ; (18 found)
0x3800f: retn 0x528B ; (1 found)
0x38351: retn 0x538B ; (2 found)
0x16120: retn 0x5589 ; (1 found)
0xffb3: retn 0x5775 ; (1 found)
0x93e4: retn 0x5788 ; (1 found)
0x8a419: retn 0x5F72 ; (1 found)
0xa1a3: retn 0x6889 ; (1 found)
0x15e4a: retn 0x6939 ; (1 found)
0x85271: retn 0x6B48 ; (1 found)
0x4b52: retn 0x70BA ; (1 found)
0x8d5a0: retn 0x7175 ; (1 found)
0x3c4cb: retn 0x7401 ; (1 found)
0x3d7de: retn 0x7402 ; (3 found)
0x44d7d: retn 0x7404 ; (1 found)
0x3c159: retn 0x7408 ; (1 found)
0x1720a: retn 0x740F ; (1 found)
0x8fea0: retn 0x7477 ; (1 found)
0x23516: retn 0x7501 ; (2 found)
0x3c190: retn 0x7503 ; (1 found)
0x68b3: retn 0x7504 ; (1 found)
0x8f686: retn 0x75FF ; (5 found)
0x3712a: retn 0x78E8 ; (1 found)
0x2d39b: retn 0x8008 ; (1 found)
0x171a: retn 0x8148 ; (1 found)
0x3bd12: retn 0x8149 ; (1 found)
0x12533: retn 0x8306 ; (1 found)
0x25878: retn 0x8308 ; (1 found)
0x11379: retn 0x830F ; (1 found)
0x1d986: retn 0x8310 ; (1 found)
0x32f4f: retn 0x8330 ; (1 found)
0x7d070: retn 0x8341 ; (4 found)
0x7a284: retn 0x8348 ; (23 found)
0x7bbde: retn 0x8349 ; (10 found)
0x3afb2: retn 0x8408 ; (1 found)
0x8d2f1: retn 0x840F ; (9 found)
0x76941: retn 0x8445 ; (1 found)
0x3bb3c: retn 0x8506 ; (1 found)
0x8fc7c: retn 0x850F ; (5 found)
0x32dc6: retn 0x8545 ; (2 found)
0x76bbd: retn 0x8548 ; (10 found)
0xa77f: retn 0x8549 ; (5 found)
0x29e7c: retn 0x854D ; (1 found)
0x15270: retn 0x860F ; (1 found)
0x783fe: retn 0x870F ; (5 found)
0x1145f: retn 0x8906 ; (3 found)
0x7a511: retn 0x891F ; (1 found)
0x854b8: retn 0x8941 ; (5 found)
0x8545b: retn 0x8942 ; (1 found)
0x43a0: retn 0x8944 ; (1 found)
0x84907: retn 0x8948 ; (12 found)
0x8a007: retn 0x8949 ; (15 found)
0x83f32: retn 0x894A ; (2 found)
0x1a3b9: retn 0x894B ; (2 found)
0xba52: retn 0x894C ; (2 found)
0x42923: retn 0x894D ; (2 found)
0x906f: retn 0x8966 ; (6 found)
0x32ca8: retn 0x8A0B ; (1 found)
0x32d58: retn 0x8A14 ; (1 found)
0x32d07: retn 0x8A16 ; (1 found)
0x44026: retn 0x8A40 ; (1 found)
0x344b3: retn 0x8A8D ; (1 found)
0x8d6ad: retn 0x8B07 ; (2 found)
0x1d3ee: retn 0x8B08 ; (1 found)
0xff7e: retn 0x8B40 ; (1 found)
0x78e89: retn 0x8B41 ; (8 found)
0x5855: retn 0x8B44 ; (8 found)
0x58a6: retn 0x8B45 ; (2 found)
0x76cb0: retn 0x8B48 ; (75 found)
0x8aaa: retn 0x8B49 ; (11 found)
0x7f9ee: retn 0x8B4C ; (16 found)
0x8f780: retn 0x8C3B ; (1 found)
0x8f7a0: retn 0x8C89 ; (1 found)
0x896c4: retn 0x8D41 ; (1 found)
0x8be28: retn 0x8D48 ; (15 found)
0x32cd6: retn 0x8D4A ; (2 found)
0x8d63c: retn 0x8D4C ; (2 found)
0x7943d: retn 0x8D4D ; (1 found)
0x2a4db: retn 0x8D4E ; (1 found)
0x8f4ad: retn 0x8F76 ; (1 found)
0x1d8e7: retn 0x8FE9 ; (1 found)
0x247e4: retn 0x918B ; (2 found)
0x1d235: retn 0x91E8 ; (1 found)
0x405d3: retn 0x940F ; (1 found)
0x1505: retn 0x967F ; (1 found)
0x1a49b: retn 0x9680 ; (1 found)
0x2466a: retn 0xA948 ; (6 found)
0xc523: retn 0xA9EB ; (1 found)
0x30b30: retn 0xB141 ; (1 found)
0x408f: retn 0xB60F ; (4 found)
0x47b1: retn 0xB70F ; (8 found)
0x2b992: retn 0xB841 ; (2 found)
0x196f5: retn 0xB875 ; (1 found)
0x8095d: retn 0xBA0F ; (2 found)
0x818f6: retn 0xBA48 ; (6 found)
0x7816a: retn 0xBAC3 ; (1 found)
0x7d918: retn 0xBAEE ; (1 found)
0x7e0d3: retn 0xBB48 ; (1 found)
0x1d917: retn 0xBDE9 ; (1 found)
0xee07: retn 0xC033 ; (1 found)
0x11c64: retn 0xC085 ; (1 found)
0x227ba: retn 0xC110 ; (1 found)
0x3b5c4: retn 0xC13B ; (2 found)
0x1173d: retn 0xC141 ; (5 found)
0x7af68: retn 0xC148 ; (61 found)
0xb31e: retn 0xC149 ; (3 found)
0x42a45: retn 0xC166 ; (3 found)
0x35343: retn 0xC18B ; (1 found)
0x4825a: retn 0xC1FF ; (1 found)
0x45501: retn 0xC23A ; (1 found)
0x1317f: retn 0xC28B ; (2 found)
0x3a89c: retn 0xC2FF ; (1 found)
0x1d076: retn 0xC30B ; (1 found)
0x196df: retn 0xC333 ; (1 found)
0x3bdc2: retn 0xC62B ; (2 found)
0x32c0a: retn 0xC641 ; (2 found)
0x8fbe9: retn 0xC803 ; (3 found)
0x28caf: retn 0xC82B ; (1 found)
0x2b54e: retn 0xC872 ; (1 found)
0x15e32: retn 0xC88B ; (1 found)
0x3a89e: retn 0xC8FF ; (1 found)
0x778a9: retn 0xC933 ; (2 found)
0x2fb05: retn 0xC984 ; (1 found)
0x80498: retn 0xC985 ; (1 found)
0x46a11: retn 0xCA2B ; (2 found)
0x32bf9: retn 0xCA80 ; (1 found)
0x15bf2: retn 0xCA8B ; (1 found)
0x33b75: retn 0xCB8B ; (1 found)
0x4891: retn 0xCCC3 ; (8 found)
0x102a1: retn 0xCD73 ; (1 found)
0x28b80: retn 0xCEFF ; (1 found)
0x43fba: retn 0xCF7C ; (1 found)
0x9170: retn 0xD06B ; (1 found)
0x1717f: retn 0xD0F6 ; (1 found)
0x8feb0: retn 0xD13B ; (3 found)
0x320f2: retn 0xD148 ; (1 found)
0x8f5a9: retn 0xD176 ; (1 found)
0x7b3d6: retn 0xD18A ; (2 found)
0x7a5e5: retn 0xD18B ; (8 found)
0x797f6: retn 0xD233 ; (5 found)
0x83584: retn 0xD272 ; (1 found)
0x7516a: retn 0xD285 ; (2 found)
0x4751e: retn 0xD303 ; (1 found)
0x1d85c: retn 0xD348 ; (1 found)
0x7bea1: retn 0xD372 ; (1 found)
0x7749e: retn 0xD603 ; (1 found)
0x8fbae: retn 0xD63B ; (2 found)
0x12379: retn 0xD8F7 ; (2 found)
0x307ad: retn 0xD974 ; (1 found)
0x1b237: retn 0xD9E9 ; (1 found)
0x7f9be: retn 0xDC72 ; (1 found)
0x32fe2: retn 0xDCE8 ; (1 found)
0x1244b: retn 0xDE3B ; (1 found)
0x7f261: retn 0xE083 ; (7 found)
0x8dab0: retn 0xE0C1 ; (4 found)
0x3a5f4: retn 0xE0D3 ; (1 found)
0x121fa: retn 0xE183 ; (2 found)
0x36c71: retn 0xE281 ; (1 found)
0x120eb: retn 0xE283 ; (1 found)
0x473bd: retn 0xE2D3 ; (3 found)
0x2c46: retn 0xE803 ; (1 found)
0x37673: retn 0xE808 ; (3 found)
0x79970: retn 0xE810 ; (1 found)
0x7bd0b: retn 0xE814 ; (2 found)
0x22b01: retn 0xE850 ; (1 found)
0x372d: retn 0xE883 ; (3 found)
0x3d08c: retn 0xE8C0 ; (1 found)
0x469aa: retn 0xE8C1 ; (2 found)
0x469a5: retn 0xE8D1 ; (3 found)
0x11b5c: retn 0xE8D3 ; (1 found)
0x3e03d: retn 0xE9C0 ; (1 found)
0x7fad1: retn 0xEAC1 ; (1 found)
0x123b5: retn 0xEAD3 ; (1 found)
0x23a7a: retn 0xEAEB ; (1 found)
0x7edb9: retn 0xEB00 ; (1 found)
0x81234: retn 0xEB0A ; (3 found)
0x8ff8e: retn 0xEB10 ; (1 found)
0x24591: retn 0xEB72 ; (1 found)
0x3cce4: retn 0xED33 ; (1 found)
0xbe95: retn 0xEDEB ; (1 found)
0x32ae7: retn 0xEE0A ; (1 found)
0x81244: retn 0xEE14 ; (2 found)
0x298b7: retn 0xEE75 ; (2 found)
0x2fea6: retn 0xEF75 ; (1 found)
0x33abb: retn 0xF08B ; (1 found)
0x42a20: retn 0xF0B9 ; (1 found)
0x32554: retn 0xF172 ; (1 found)
0x85692: retn 0xF272 ; (1 found)
0x2eedc: retn 0xF28B ; (1 found)
0x8fced: retn 0xF472 ; (1 found)
0x3447f: retn 0xF633 ; (1 found)
0x26970: retn 0xF685 ; (1 found)
0x1d8f8: retn 0xF6E9 ; (1 found)
0x150f1: retn 0xF703 ; (1 found)
0x46a5c: retn 0xF741 ; (2 found)
0x1a486: retn 0xF749 ; (1 found)
0x43fc9: retn 0xF77C ; (1 found)
0x20268: retn 0xF7E9 ; (1 found)
0x8a9fc: retn 0xF883 ; (4 found)
0x7eda2: retn 0xF89A ; (1 found)
0x7f51e: retn 0xF8B8 ; (1 found)
0x3cd00: retn 0xF98B ; (1 found)
0x8c37a: retn 0xFA2D ; (1 found)
0x429d7: retn 0xFCB9 ; (1 found)
0x7ea8a: retn 0xFCE6 ; (1 found)
0x8cdb2: retn 0xFD7B ; (1 found)
0x8cd5a: retn 0xFD7F ; (1 found)
0x893ed: retn 0xFD8B ; (1 found)
0x2f2ea: retn 0xFD8E ; (1 found)
0x8bafa: retn 0xFDA5 ; (1 found)
0x8871d: retn 0xFDC1 ; (1 found)
0x8f24a: retn 0xFE1E ; (1 found)
0x1f81c: retn 0xFE3D ; (1 found)
0x8d332: retn 0xFE44 ; (1 found)
0x8aaca: retn 0xFE68 ; (1 found)
0x1a84a: retn 0xFE6F ; (1 found)
0x78ef2: retn 0xFEED ; (1 found)
0x2277a: retn 0xFF10 ; (1 found)
0x1d09f: retn 0xFF25 ; (1 found)
0x2ebd8: retn 0xFF38 ; (1 found)
0x341c8: retn 0xFF41 ; (3 found)
0x219f2: retn 0xFF42 ; (1 found)
0x7e341: retn 0xFF48 ; (7 found)
0x12ff4: retn 0xFF49 ; (2 found)
0x21def: retn 0xFF4D ; (1 found)
0x1ed16: retn 0xFF7C ; (1 found)
0x34166: retn 0xFFBA ; (2 found)
0x788f9: retn 0xFFD6 ; (1 found)
0x79047: retn 0xFFDA ; (1 found)
0x79133: retn 0xFFDF ; (1 found)
0x8230f: retn 0xFFE2 ; (1 found)
0x7d54e: retn 0xFFF8 ; (2 found)
0x7930f: retn 0xFFF9 ; (1 found)
0x79110: retn 0xFFFB ; (3 found)
0x2228a: retn 0xFFFC ; (1 found)
0x89e63: retn 0xFFFD ; (3 found)
0x85629: retn 0xFFFE ; (15 found)
0x75086: retn 0xFFFF ; (24 found)
0x3392b: rol  [0x000000000006A061], 0x48 ; add esp, 0x30 ; pop rbx ; ret ; (2 found)
0x2c074: rol  [0x000000000006A061], 0xFFFFFFB8 ; add  [rax], eax ; add al, al ; ret ; (1 found)
0x13d7d: rol  [0x0000000044204C83], cl ; add byte [rax], al ; add rsp, 0x28 ; ret ; (1 found)
0x35757: rol  [gs:rbx], 0x00000000 ; add rsp, 0x28 ; ret ; (1 found)
0x8ffb2: rol  [rax+rax*8+0x0F410974], 0xFFFFFFB6 ; add  [r11], edi ; retn 0x0273 ; (1 found)
0x1aaf7: rol  [rax], 0x00000000 ; add byte [rax+0x23], cl ; ror byte [rax-0x75], 1 ; retn 0xC148 ; (1 found)
0x7af0e: rol  [rax], 0x46 ; ret ; (2 found)
0x916a: rol  [rbp+0x22], 1 ; ret ; (1 found)
0xa390: rol  [rbx-0x77], 0x44 ; adc byte [rsp+rax*4+0x00], al ; sal byte [rbp+0x01], cl ; ret ; (1 found)
0x35758: rol  [rbx], 0x00000000 ; add rsp, 0x28 ; ret ; (1 found)
0x8fba9: rol  [rcx+0x2B], cl ; sar bh, 1 ; retn 0xD63B ; (1 found)
0x4714b: rol  [rcx+rcx*4+0x47], 0x10 ; mov rdi, qword [rsp+0x18] ; ret ; (1 found)
0x4275a: rol  [rcx-0x73], 1 ; dec  [rbp+0x3B66F45E] ; ret ; (1 found)
0x221a2: rol  [rcx-0x75], 0xFFFFFFC1 ; ret ; (1 found)
0x344a6: rol  [rcx-0x75], 1 ; ret ; (1 found)
0x337c2: rol  [rcx-0x75], 1 ; retn 0x0348 ; (1 found)
0x8feab: rol  [rcx-0x75], 1 ; retn 0x430F ; (1 found)
0x26a19: rol  [rcx-0x75], 1 ; ror byte [rdi], 0x4D ; ret ; (1 found)
0x266ce: rol  [rcx-0x76], 0xFFFFFFC0 ; ret ; (2 found)
0x32c07: rol  [rdi+rcx+0x44], 1 ; retn 0xC641 ; (1 found)
0x20b16: rol bh, 0x05 ; ret ; (1 found)
0x3255b: rol bl, 0x33 ; rol bl, 0x33 ; rol byte [rcx-0x78], 0x01 ; ret ; (1 found)
0x3255e: rol bl, 0x33 ; rol byte [rcx-0x78], 0x01 ; ret ; (1 found)
0x4222d: rol bl, 0x49 ; div ecx ; ret ; (1 found)
0x2efbd: rol bl, 0xB8 ; add  [rax], eax ; add al, al ; ret ; (1 found)
0x7b673: rol bl, 0xB8 ; add  [rax], eax ; add byte [rax], al ; ret ; (2 found)
0xa284: rol byte [0xFFFFFFFFC148A28B], 0xE2 ; and byte [rax+0x0B], cl ; retn 0x8B49 ; (1 found)
0x4599e: rol byte [rax+rdi+0x05], 0x7E ; and eax, 0x03750002 ; xor eax, eax ; ret ; (1 found)
0x14ff: rol byte [rax], 0x00 ; add byte [rax-0x007F], cl ; retn 0x967F ; (1 found)
0x7756d: rol byte [rax], 0x00 ; add byte [rcx+0x0F], cl ; retn 0x8548 ; (1 found)
0x68f1: rol byte [rax], 0x00 ; add byte [rcx-0x0A], al ; retn 0x0F02 ; (1 found)
0x155e2: rol byte [rax], 0x00 ; mov al, r8L ; ret ; (1 found)
0x10ecb: rol byte [rax], 1 ; add byte [rax], al ; pop rbp ; ret ; (1 found)
0x46b5c: rol byte [rbp+0x0F], cl ; ret ; (2 found)
0x341a4: rol byte [rbp+0x3B], 1 ; ret ; (2 found)
0x3e9c4: rol byte [rbp-0x73], cl ; add  [rbp+0x3B], eax ; ret ; (1 found)
0x90076: rol byte [rbp-0x77], 0x08 ; ret ; (1 found)
0x7be9b: rol byte [rbx+rcx*4-0x40], 0x3B ; retn 0xD372 ; (2 found)
0x4aa8: rol byte [rbx-0x2FCCFE1E], 1 ; mov  [rcx+0x10], edx ; ret ; (1 found)
0x10e6e: rol byte [rbx-0x38], 1 ; mov eax, r9d ; ret ; (1 found)
0x31dfd: rol byte [rbx-0x6BF0FD02], cl ; retn 0x8D4C ; (1 found)
0x11b36: rol byte [rbx-0x74BEF01E], cl ; retn 0xC148 ; (1 found)
0x8ceb3: rol byte [rbx-0x75], 0x74 ; ret ; (1 found)
0x25f4b: rol byte [rbx-0x7EB7EF1E], cl ; retn 0x0098 ; (1 found)
0x357d4: rol byte [rbx], 0x00 ; add rsp, 0x28 ; ret ; (1 found)
0x896c2: rol byte [rbx], 1 ; retn 0x8D41 ; (1 found)
0x9167: rol byte [rcx+0x02], cl ; rol  [rbp+0x22], 1 ; ret ; (1 found)
0x23289: rol byte [rcx+0x03], 1 ; ret ; (1 found)
0x296ea: rol byte [rcx+0x07EB0004], cl ; mov byte [rcx+0x000000D8], 0x00 ; add rsp, 0x28 ; ret ; (1 found)
0x46a0d: rol byte [rcx+0x0F], 1 ; retn 0xCA2B ; (2 found)
0x907f: rol byte [rcx+0x22], 1 ; ret ; (5 found)
0x47035: rol byte [rcx+0x33], cl ; ret ; (1 found)
0x25ee1: rol byte [rcx-0x007F], 1 ; ret ; (1 found)
0x77542: rol byte [rcx-0x0080], 0xF8 ; adc byte [rdx-0x1A], dh ; mov eax, 0xC0000225 ; ret ; (1 found)
0x35a1: rol byte [rcx-0x00FFFF3E], cl ; jmp qword [rbx] ; (1 found)
0x2e46d: rol byte [rcx-0x75], 0x8C ; retn 0x00A8 ; (1 found)
0x8eb17: rol byte [rcx-0x75], 0xC0 ; ret ; (1 found)
0x36529: rol byte [rcx-0x75], 1 ; retn 0x8B48 ; (1 found)
0x120e8: rol byte [rcx-0x75], cl ; retn 0xE283 ; (1 found)
0x16e3e: rol byte [rcx-0x77], 0x08 ; ret ; (1 found)
0x32561: rol byte [rcx-0x78], 0x01 ; ret ; (1 found)
0xae53: rol byte [rcx-0x7D], 0xF8 ; adc byte [rdi+rcx+0x44], al ; enter 0x8B41, 0xC1 ; ret ; (1 found)
0x4672d: rol byte [rcx-0x7D], 1 ; ret ; (1 found)
0x266cb: rol byte [rdi+rcx+0x44], cl ; rol  [rcx-0x76], 0xFFFFFFC0 ; ret ; (1 found)
0x344c3: rol byte [rsi], 0x00 ; add byte [rax+0x0B], cl ; retn 0x8B48 ; (1 found)
0x12962: rol byte [rsi], 0x48 ; lea eax,  [rcx+rax*4] ; ret ; (1 found)
0x7bc23: rol ebx, 0x48 ; mov ecx,  [0x0000000000064C58] ; mov qword [rdx], rcx ; ret ; (1 found)
0xbda9: rol ebx, 0x49 ; mov eax, ecx ; ret ; (1 found)
0x4465: ror  [rax+0x03], 0xFFFFFFC0 ; and  [rdx+rax*8+0x04], 0x00000000 ; mov  [rdx+rax*8], 0x00000002 ; ret ; (2 found)
0x1226c: ror  [rax+0x0F382444], 0xFFFFFF92 ; ret ; (1 found)
0x2bdf9: ror  [rax+0x1B], 0xFFFFFFC0 ; and rax, r8 ; ret ; (1 found)
0x3ab9a: ror  [rax+rcx*2], 0xFFFFFF8B ; ret ; (1 found)
0xb5c5: ror  [rax-0x007F], 1 ; retn 0x0FFF ; (1 found)
0x3efa4: ror  [rax-0x73], 0x55 ; xchg  [rax+0x33], ecx ; ret ; (1 found)
0x8f602: ror  [rax-0x75], 0x6C ; and al, 0x10 ; mov rdi, qword [rsp+0x18] ; ret ; (1 found)
0x8aa8a: ror  [rax-0x75], 0x7C ; and al, 0x10 ; ret ; (2 found)
0x135b3: ror  [rax-0x75], cl ; and byte [rax-0x01000000], 0x15 ; jmp rdx ; (1 found)
0x7bea3: ror  [rax-0x75], cl ; pop rsp ; and al, 0x08 ; ret ; (1 found)
0x7fa2a: ror  [rax-0x75], cl ; ret ; (2 found)
0x44da9: ror  [rax-0x7D], 0xFFFFFFC4 ; ret ; (1 found)
0x8f63f: ror  [rbp-0x73], 0x52 ; add al, 0x0F ; retn 0x3B44 ; (1 found)
0x81f22: ror  [rbx+0x0FE2E8CF], cl ; sti ; call qword [rax-0x0032BA17] ; (1 found)
0x2b09f: ror  [rbx+0x408B48CB], cl ; call rax ; (1 found)
0x8f63d: ror  [rbx+0x528D4DC1], 1 ; add al, 0x0F ; retn 0x3B44 ; (1 found)
0x164a2: ror  [rcx+0x01B04048], 0x48 ; add esp, 0x28 ; ret ; (2 found)
0x3f70b: ror  [rcx+0x0261AE0D], 0x00000000 ; mov al, dl ; ret ; (1 found)
0x3bb97: ror  [rcx+0x0B], 1 ; retn 0x8348 ; (1 found)
0x7b488: ror  [rcx+0x44F03842], 0x09 ; add al, 0x24 ; ret ; (1 found)
0x171f2: ror  [rcx+0x63], 1 ; ret ; (1 found)
0x1a498: ror  [rcx+0x69], 1 ; retn 0x9680 ; (1 found)
0x42226: ror  [rcx-0x09], 0xFFFFFFF1 ; imul rax, r8 ; ret ; (1 found)
0xbda3: ror  [rcx-0x09], 0xFFFFFFF2 ; add rax, rcx ; ret ; (1 found)
0x2b459: ror  [rcx-0x75], 0xFFFFFFD2 ; mov rcx, r11 ; mov rax, qword [rax+0x30] ; call rax ; (1 found)
0x32bf6: ror  [rcx-0x75], 1 ; retn 0xCA80 ; (1 found)
0x3b09d: ror  [rcx-0x77], 1 ; adc cl, byte [rcx-0x7D] ; retn 0x4008 ; (1 found)
0x4a3dc: ror  [rdi+rcx+0x46], 1 ; ror byte [rcx-0x75], 0xC0 ; ret ; (1 found)
0x1801b: ror  [rdi+rcx-0x5D], cl ; retn 0x2A73 ; (1 found)
0x37f81: ror  [rdi], 0xFFFFFFB6 ; ret ; (1 found)
0x33b83: ror byte [r8-0x75], 1 ; ror byte [rax-0x75], 1 ; retn 0xC148 ; (1 found)
0xef80: ror byte [r9-0x76BBF783], 0x75 ; sbb al, 0xE8 ; retn 0x0009 ; (1 found)
0x3b00c: ror byte [rax+0x0B], 0xC2 ; mov qword [rcx], rax ; mov al, 0x01 ; ret ; (1 found)
0x3b4b5: ror byte [rax+0x0B], 1 ; retn 0x8B45 ; (1 found)
0x34398: ror byte [rax+0x0F], cl ; mov edx, 0x8B4816EA ; retn 0xC148 ; (2 found)
0x8fc2d: ror byte [rax+0x0F], cl ; stosd ; retn 0x8B48 ; (1 found)
0x23666: ror byte [rax-0x007F], 0xC4 ; mov byte [rax], al ; add byte [rax], al ; ret ; (1 found)
0x349b1: ror byte [rax-0x09], 1 ; fimul  [rax-0x75] ; retn 0xC148 ; (1 found)
0x8da0a: ror byte [rax-0x39], 0x44 ; and al, 0x20 ; retn 0x0000 ; (1 found)
0x24b06: ror byte [rax-0x75], 0x49 ; or byte [rbx], bh ; ret ; (1 found)
0x24f76: ror byte [rax-0x75], 0x52 ; or bl, ch ; in eax, 0xFF ; ret ; (1 found)
0x3fc9c: ror byte [rax-0x75], 0x5C ; and al, 0x08 ; mov rdi, qword [rsp+0x10] ; ret ; (1 found)
0x8ea6: ror byte [rax-0x75], 0x5C ; and al, 0x08 ; ret ; (3 found)
0x428d2: ror byte [rax-0x75], 0x74 ; and al, 0x10 ; ret ; (1 found)
0x2ae4b: ror byte [rax-0x75], 0x8D ; mov al, byte [0x55E8CC3348000001] ; retn 0xFFFE ; (1 found)
0x1aafd: ror byte [rax-0x75], 1 ; retn 0xC148 ; (9 found)
0x33b84: ror byte [rax-0x75], 1 ; ror byte [rax-0x75], 1 ; retn 0xC148 ; (1 found)
0xbd8e: ror byte [rax-0x75], cl ; enter 0x0F49, 0xAF ; retn 0x0F49 ; (1 found)
0x884fb: ror byte [rax-0x75], cl ; enter 0x3CE8, 0xF7 ; clc ; jmp qword [rbp+0x48] ; (1 found)
0x3933c: ror byte [rax-0x75], cl ; enter 0x8D44, 0x42 ; push 0xFDE8F7E8 ; jmp qword [rcx] ; (1 found)
0x45d1: ror byte [rax-0x77], 0x01 ; mov eax, 0xC00000BB ; ret ; (1 found)
0x88025: ror byte [rax-0x77], 1 ; add eax, 0xFFFDC86B ; ret ; (1 found)
0x6463: ror byte [rax-0x7D], 0xC0 ; sbb bh, bh ; ret ; (2 found)
0x8568c: ror byte [rax-0x7D], 0xC1 ; cmp byte [rbx], bh ; retn 0xF272 ; (1 found)
0x3254e: ror byte [rax-0x7D], 0xC1 ; sbb byte [rbx], bh ; retn 0xF172 ; (1 found)
0x341cb: ror byte [rax-0x7D], 0xC2 ; adc byte [rbp+0x3B], al ; ret ; (2 found)
0x2b547: ror byte [rax-0x7D], 0xC2 ; or byte [rbp+0x3B], al ; retn 0xC872 ; (1 found)
0x7b64a: ror byte [rax-0x7D], 0xC4 ; pop rax ; ret ; (1 found)
0x75852: ror byte [rax-0x7D], 0xC4 ; pop rbx ; ret ; (3 found)
0x818e: ror byte [rax-0x7D], 0xC4 ; push rax ; pop rbx ; ret ; (1 found)
0x13738: ror byte [rax-0x7D], 0xC4 ; ret ; (1 found)
0x48684: ror byte [rax-0x7D], 0xC4 ; xor byte [rcx+0x5E], al ; ret ; (1 found)
0x3c08a: ror byte [rax-0x7D], 0xE0 ; cld ; add rax, 0x05 ; ret ; (1 found)
0x34578: ror byte [rax-0x7D], 0xE2 ; dec byte [rax-0x75] ; retn 0xC148 ; (1 found)
0x11580: ror byte [rax-0x7D], 1 ; retn 0x4806 ; (1 found)
0x20f58: ror byte [rax-0x7D], 1 ; retn 0x4810 ; (1 found)
0x12530: ror byte [rax-0x7D], 1 ; retn 0x8306 ; (1 found)
0x2f1c2: ror byte [rbp+0x05E80348], cl ; pushfq ; std ; jmp qword [rsi+0x0B] ; (1 found)
0x32e06: ror byte [rbp+0x440F1204], 1 ; retn 0xCCC3 ; (1 found)
0x553d: ror byte [rbp+rcx*4+0x34], 1 ; retn 0x8B41 ; (1 found)
0x2f102: ror byte [rbp-0x3A17FCB8], cl ; pushfq ; std ; jmp qword [rsi+0x0B] ; (1 found)
0x2451f: ror byte [rbp-0x73], 0x34 ; retn 0x8B44 ; (1 found)
0x153b9: ror byte [rbx+0x048D41D9], cl ; or al, byte [rbx-0x70F0FC08] ; push rbx ; retn 0x0000 ; (1 found)
0x338ef: ror byte [rbx+0x1F31E8CB], cl ; std ; jmp qword [rbp-0x75] ; (1 found)
0x2e92a: ror byte [rbx+0x5C8B48C3], 0x24 ; add rsp, 0x30 ; pop rdi ; ret ; (1 found)
0x8fe88: ror byte [rbx-0x1F3EB73B], cl ; add cl, byte [rcx+0x3B] ; retn 0x460F ; (1 found)
0x7a682: ror byte [rbx-0x3B7CB73F], 0x28 ; ret ; (1 found)
0x1651f: ror byte [rbx-0x3E7CEFB7], 0x50 ; add ecx, r8d ; mov  [rdx], ecx ; ret ; (1 found)
0x3a4db: ror byte [rbx-0x7EB37405], 1 ; sbb al, 0x8B ; ret ; (1 found)
0x2bdfc: ror byte [rcx+0x23], 0xC0 ; ret ; (1 found)
0x16feb: ror byte [rcx+0x25B8C30A], 0x02 ; add al, al ; ret ; (1 found)
0x8fee1: ror byte [rcx+0x3B], cl ; retn 0x460F ; (1 found)
0x45233: ror byte [rcx+0x480CEB01], 0x8B ; add  [rax+0x23], ecx ; retn 0x0B49 ; (1 found)
0x31a16: ror byte [rcx+0x69], cl ; ret ; (1 found)
0x1781b: ror byte [rcx+rcx*4+0x40], 0x78 ; add rsp, 0x28 ; xor eax, eax ; ret ; (1 found)
0x4221b: ror byte [rcx-0x09], 0xF1 ; imul rax, rcx ; ret ; (1 found)
0x27f20: ror byte [rcx-0x75], 0x41 ; adc byte [rax-0x73], cl ; add al, 0xC8 ; ret ; (1 found)
0x4a3df: ror byte [rcx-0x75], 0xC0 ; ret ; (2 found)
0x4a34: ror byte [rcx-0x75], 0xD0 ; shr rdx, 0x20 ; wrmsr ; ret ; (1 found)
0x35480: ror byte [rcx-0x75], 1 ; retn 0x8348 ; (2 found)
0x2f7f1: ror byte [rcx-0x75], cl ; ret ; (1 found)
0x586e: ror byte [rcx-0x75], cl ; retn 0xC148 ; (4 found)
0x1a483: ror byte [rcx-0x75], cl ; retn 0xF749 ; (1 found)
0xef81: ror byte [rcx-0x76BBF783], 0x75 ; sbb al, 0xE8 ; retn 0x0009 ; (1 found)
0x4a38b: ror byte [rdi+rcx+0x46], cl ; enter 0x8B49, 0xC1 ; ret ; (1 found)
0x2cdac: ror byte [rdi], 0x49 ; ret ; (1 found)
0x26a1c: ror byte [rdi], 0x4D ; ret ; (1 found)
0x8b103: ror byte [rdi], 0x84 ; and ebp,  [rax+rax] ; add bh, bh ; ret ; (1 found)
0x7da5f: ror byte [rdi], 0x84 ; cmp byte [rax], r8L ; add bh, bh ; ret ; (1 found)
0x884b: ror byte [rdi], 0x84 ; enter 0x013B, 0x00 ; add rsp, 0x28 ; ret ; (1 found)
0x1ae8: ror byte [rdi], 0x84 ; jmp qword [rdi+0x01] ; (1 found)
0x76bc8: ror byte [rdi], 0x84 ; ret ; (4 found)
0x1ac96: ror byte [rdi], 0x84 ; retn 0x0000 ; (3 found)
0x219ef: ror byte [rdi], 0x84 ; retn 0xFF42 ; (1 found)
0x8d73f: ror byte [rdi], 0x84 ; xchg eax, ebx ; retn 0xFFFF ; (1 found)
0x19dc8: ror byte [rdi], 0x85 ; mov edx, 0xE9FFFE9E ; ret ; (1 found)
0xa955: ror byte [rdi], 0x85 ; mov esp, 0x8A000160 ; ret ; (1 found)
0x755a6: ror byte [rdi], 0x85 ; sbb eax, 0x48000030 ; add esp, 0x38 ; ret ; (1 found)
0x1bf51: ror byte [rdi], 0x88 ; aaa ; retn 0xFFFE ; (1 found)
0x80e2f: ror byte [rdi], 0x88 ; lahf ; retn 0xFFFF ; (1 found)
0x1bf94: ror byte [rdi], 0x88 ; outsb ; ret ; (1 found)
0x832a8: ror byte [rdi], 0x88 ; retn 0x0005 ; (1 found)
0x1c2cf: ror byte [rdi], 0x88 ; stosd ; ret ; (1 found)
0x21c9d: ror byte [rdi], 0x89 ; retn 0xFF49 ; (1 found)
0x3d49: ror byte [rdi], 0x95 ; ret ; (2 found)
0x17412: ror byte [rdi], 1 ; and dl, al ; ret ; (1 found)
0x82ac2: ror byte [rdi], cl ; xor bh, bh ; ret ; (2 found)
0x33423: sal  [rax-0x367F11F5], 1 ; or byte [rdx-0x3FCCBA3F], 0xEB ; or al, 0x8A ; ret ; (1 found)
0x2fb35: sal  [rbp+0x06], 0xFFFFFF87 ; adc eax, 0x00034D9A ; add rsp, 0x28 ; ret ; (1 found)
0x4379: sal  [rbp+0x07], 0x44 ; mov  [rdx+0x08], edx ; xor eax, eax ; ret ; (1 found)
0x42ee3: sal  [rbp+0x55], 0xFFFFFF8A ; ret ; (1 found)
0x37882: sal  [rbp-0x18], 1 ; xor al, al ; ret ; (1 found)
0x89519: sal  [rbp-0x2A], 0x48 ; mov ebx,  [rsp+0x08] ; ret ; (1 found)
0x3aef6: sal  [rbx+rax+0x32], 0xFFFFFFC0 ; ret ; (1 found)
0x88020: sal  [rbx+rcx+0x48], 0xFFFFFFF7 ; ror byte [rax-0x77], 1 ; add eax, 0xFFFDC86B ; ret ; (1 found)
0x4566c: sal  [rcx+0x000CE801], 1 ; add byte [rax], al ; add rsp, 0x28 ; ret ; (1 found)
0x7a4db: sal  [rdi+0x03], 1 ; mov al, 0x01 ; mov al, r8L ; ret ; (1 found)
0x7b1b: sal  [rdi+0x07], 0xFFFFFF8D ; int1 ; add eax, r8d ; ret ; (1 found)
0x41e7d: sal  [rdx-0x0F], 1 ; mov eax, edx ; ret ; (1 found)
0x164fa: sal  [rdx-0x28], 1 ; xor al, al ; add rsp, 0x28 ; ret ; (1 found)
0x25f58: sal  [rdx], cl ; fisttp  [rax-0x75] ; add cl, byte [rax+0x3B] ; retn 0x1774 ; (1 found)
0x8a17: sal bh, 0xD0 ; and eax, 0xC00000BB ; ret ; (1 found)
0x22782: sal bh, 0xD0 ; and eax, 0xC0000225 ; add rsp, 0x28 ; ret ; (1 found)
0x10e6c: sal bh, 0xD0 ; and r9d, eax ; mov eax, r9d ; ret ; (1 found)
0x120e6: sal bh, 1 ; rol byte [rcx-0x75], cl ; retn 0xE283 ; (1 found)
0x156d3: sal byte [rax+0x48000000], 0x03 ; add eax, 0x000526F1 ; add rsp, 0x28 ; ret ; (1 found)
0x788f2: sal byte [rax+rcx+0x48], 0x03 ; fsubr st0, st1 ; retn 0xFFD6 ; (1 found)
0x4252e: sal byte [rax+rdx+0x48], 0x83 ; retn 0x4948 ; (1 found)
0xbd2c: sal byte [rbp+0x01], 1 ; ret ; (1 found)
0xa397: sal byte [rbp+0x01], cl ; ret ; (1 found)
0x78442: sal byte [rbp+0x04], 0x8B ; retn 0x06EB ; (5 found)
0xb7b9: sal byte [rbp+0x06], 0x59 ; ret ; (1 found)
0x126b8: sal byte [rbp+0x07], 0x0F ; mov dh, 0x02 ; mov  [rcx+0x68], eax ; ret ; (1 found)
0x41b17: sal byte [rbp+0x07], 0x83 ; jmp qword [rdx+rsi*2-0x18] ; (1 found)
0x162c0: sal byte [rbp+0x0D], 0x33 ; ror byte [rax-0x75], 0x5C ; and al, 0x08 ; ret ; (1 found)
0x2792d: sal byte [rbp+0x2C], 0xFF ; ret ; (1 found)
0x3a512: sal byte [rbp+rbx*2+0x44], 0x8B ; ret ; (1 found)
0x349a0: sal byte [rbp+rdi-0x76], cl ; ret ; (1 found)
0x2e8b2: sal byte [rbp-0x39], 1 ; xor al, al ; ret ; (1 found)
0x3fd13: sal byte [rbx+0x03], 1 ; xor eax, eax ; ret ; (1 found)
0x77d3c: sal byte [rbx+rax*2+0x4C], 0x8B ; ret ; (1 found)
0x29fc7: sal byte [rbx+rax+0x48], 0x8B ; or byte [rax-0x73], cl ; dec  [r8-0x7B] ; ret ; (1 found)
0x2688c: sal byte [rbx+rdx+0x48], 0x8B ; xor byte [rcx+0x23], cl ; ret ; (1 found)
0x2b11d: sal byte [rbx], 0xD2 ; mov ecx, r10d ; mov rax, qword [rax+0x10] ; call rax ; (1 found)
0x17706: sal byte [rbx], 0xD2 ; wrmsr ; ret ; (1 found)
0x1697a: sal byte [rbx], cl ; jmp qword [rdx] ; (1 found)
0x4aa6: sal byte [rbx], cl ; rol byte [rbx-0x2FCCFE1E], 1 ; mov  [rcx+0x10], edx ; ret ; (1 found)
0x8ffb4: sal byte [rcx+rcx+0x41], 0x0F ; mov dh, 0x41 ; add  [rbx], edi ; retn 0x0273 ; (1 found)
0x778a4: sal byte [rcx+rdi*2+0x4C], 0x8B ; retn 0xC933 ; (1 found)
0x38ba4: sal byte [rcx+rdx+0x48], 0x3B ; ret ; (1 found)
0x16f0c: sal byte [rdi+rax-0x50], 0x01 ; add rsp, 0x28 ; ret ; (1 found)
0x44d56: sal byte [rdi+rcx*2+0x48], 0x8B ; adc dh, dh ; retn 0x7402 ; (1 found)
0x4731e: sal byte [rdi+rdx+0x44], 0x8B ; enter 0x01A8, 0x75 ; or al, 0xFF ; retn 0xE8D1 ; (1 found)
0x1bf27: sal byte [rdx+0x0A], 0xB8 ; or eax, 0xE9C00000 ; pop rbx ; retn 0xFFFE ; (1 found)
0x1414c: sal byte [rdx+rsi+0x4C], 0x8B ; ret ; (1 found)
0x334e: sal byte [rdx-0x46], cl ; xor eax, eax ; ret ; (1 found)
0x3afe7: sal byte [rsp+rbp-0x75], cl ; retn 0xBA48 ; (1 found)
0x3d7dc: sal dh, 1 ; retn 0x7402 ; (1 found)
0x3d7db: sal r14L, 1 ; retn 0x7402 ; (1 found)
0x8951b: salc ; mov rbx, qword [rsp+0x08] ; ret ; (1 found)
0x8568f: sar  [rax], 0x3B ; retn 0xF272 ; (1 found)
0x7e2e: sar  [rbx], cl ; ret ; (1 found)
0x8fbac: sar bh, 1 ; retn 0xD63B ; (1 found)
0x711a: sar bh, cl ; jmp qword [rbp+0x4C] ; (1 found)
0x1ac36: sar bh, cl ; ret ; (1 found)
0x3cce2: sar bh, cl ; retn 0xED33 ; (1 found)
0x3f709: sar bh, cl ; ror  [rcx+0x0261AE0D], 0x00000000 ; mov al, dl ; ret ; (1 found)
0x82f7e: sar byte [rax+0x06], 0xFF ; ret ; (2 found)
0x26514: sar byte [rax+0x0F], 0xFF ; ret ; (1 found)
0x1a556: sar byte [rax+0x2A], 0xFF ; ret ; (1 found)
0x1c12d: sar byte [rax+0x5D], 0x8B ; ret ; (1 found)
0x8d43c: sar byte [rax-0x03], 1 ; jmp qword [rsi+0x44] ; (1 found)
0x7f51a: sar byte [rax-0x3C], 0xE8 ; retn 0xF8B8 ; (1 found)
0x7f3d5: sar byte [rax-0x71], 0xE8 ; ret ; (1 found)
0x41e7b: sar byte [rbx], 1 ; sal  [rdx-0x0F], 1 ; mov eax, edx ; ret ; (1 found)
0x3c095: sar byte [rcx+0x00000002], cl ; cmove rax, rcx ; ret ; (1 found)
0x1a47f: sar byte [rcx+0x2E], 0x33 ; ror byte [rcx-0x75], cl ; retn 0xF749 ; (1 found)
0x31ff8: sar byte [rcx+0x400000B0], cl ; wrmsr ; ret ; (1 found)
0x4926: sar byte [rcx+0x40000110], cl ; wrmsr ; xor eax, eax ; ret ; (1 found)
0x1c005: sar byte [rcx-0x69], 0xE9 ; cld ; retn 0xFFFE ; (1 found)
0x768f1: sar cl, 1 ; dec  [rax-0x75] ; ret ; (1 found)
0x3c0b0: sar eax, 0x0C ; mov qword [rdx], rax ; mov eax,  [rcx+0x000000E0] ; ret ; (1 found)
0x76309: sar ecx, cl ; inc  [rbp+rcx*4+0x43] ; add al, byte [rax+rax*8-0x74BBFC8B] ; ret ; (1 found)
0x3635d: sar edi, 0x0F ; add byte [rax], al ; mov  [r8+0x08], ecx ; ret ; (1 found)
0x9eb4: sar edi, 0x15 ; add eax, 0x4800067A ; add esp, 0x28 ; ret ; (1 found)
0x35e98: sar edi, 0xFFFFFFFF ; add rsp, 0x28 ; ret ; (1 found)
0x1ad09: sar edi, cl ; ret ; (1 found)
0x3f88e: sar edi, cl ; retn 0x3345 ; (1 found)
0x1a552: sar esi, cl ; inc  [rbp-0x00D58740] ; ret ; (1 found)
0x3c0af: sar rax, 0x0C ; mov qword [rdx], rax ; mov eax,  [rcx+0x000000E0] ; ret ; (1 found)
0x133a2: sbb  [0xFFFFFFFF8D4933A8], eax ; add eax, 0x000519E3 ; ret ; (1 found)
0x8e80: sbb  [rax+0x3B], ecx ; retn 0x1876 ; (1 found)
0x7ed87: sbb  [rax-0x01], ecx ; ret ; (1 found)
0x1296e: sbb  [rax-0x73], ecx ; add al, 0x88 ; ret ; (2 found)
0x2ea75: sbb  [rax], 0x4C000001 ; mov  [rcx+0x00000120], ecx ; ret ; (1 found)
0x11730: sbb  [rbx+0x0F411041], ecx ; xchg eax, ebp ; retn 0xE083 ; (1 found)
0x7f65e: sbb  [rcx+rbp-0x75], esi ; ret ; (1 found)
0x15295: sbb  [rcx-0x75], eax ; shr bh, 0x48 ; add esp, 0x28 ; ret ; (1 found)
0xbafe: sbb al, 0x01 ; add byte [rcx-0x76], al ; retn 0x8B4C ; (1 found)
0x2b4e: sbb al, 0x63 ; add  [rax], eax ; add rsp, 0x28 ; ret ; (1 found)
0x3a4e1: sbb al, 0x8B ; ret ; (2 found)
0xef88: sbb al, 0xE8 ; retn 0x0009 ; (1 found)
0x8279a: sbb al, 0xF9 ; dec  [rax-0x01] ; ret ; (1 found)
0x1337b: sbb al, byte [0xFFFFFFFFC1047B82] ; ret ; (2 found)
0x467aa: sbb al, byte [rcx-0x75] ; ret ; (1 found)
0x4a1f9: sbb al, byte [rcx-0x76] ; ret ; (1 found)
0x88d86: sbb al, ch ; mov edx, 0x8BFFF8E2 ; ret ; (1 found)
0x7b4b7: sbb al, dh ; or  [rsp+0x00], 0x00000000 ; ret ; (2 found)
0x2c9ea: sbb bh, bh ; adc eax, 0x00044ECF ; add rsp, 0x28 ; ret ; (1 found)
0x6467: sbb bh, bh ; ret ; (2 found)
0x46640: sbb byte [r11+0x028901C8], al ; ret ; (2 found)
0x44b61: sbb byte [r13+0x1C8DC00C], cl ; int 0x80 ; (1 found)
0x31f5c: sbb byte [r8+0x03], cl ; retn 0x8948 ; (1 found)
0x7bd03: sbb byte [r9-0x75], r9L ; push rsi ; or byte [rax-0x7D], cl ; retn 0xE814 ; (1 found)
0xc14d: sbb byte [r9], r8L ; add bl, al ; lock or  [rdx], r8d ; ret ; (1 found)
0x31f5d: sbb byte [rax+0x03], cl ; retn 0x8948 ; (1 found)
0x6565: sbb byte [rax+0x2B], cl ; retn 0x02B9 ; (1 found)
0x3e635: sbb byte [rax+0x33], cl ; or byte [r8+0x23], r9L ; retn 0xC148 ; (1 found)
0x2fd42: sbb byte [rax+rax], al ; nop  [rax+rax+0x00] ; add rsp, 0x48 ; ret ; (1 found)
0x3fffd: sbb byte [rax-0x75], cl ; ret ; (1 found)
0x300e9: sbb byte [rax-0x75], cl ; retn 0x8348 ; (1 found)
0x83e8d: sbb byte [rax-0x77], cl ; add cl, byte [rax-0x7D] ; retn 0x4808 ; (1 found)
0x8bc68: sbb byte [rax-0x7D], cl ; rcl  [fs:rax], 1 ; add byte [rcx-0x01], al ; retn 0x4489 ; (1 found)
0x77dfa: sbb byte [rax], al ; add byte [rax-0x75], cl ; ret ; (1 found)
0x46c5: sbb byte [rax], al ; add byte [rax], al ; mov al, byte [rax+0x000000D6] ; ret ; (1 found)
0x46e5: sbb byte [rax], al ; add byte [rax], al ; mov byte [rax+0x000000D6], cl ; ret ; (1 found)
0x44b62: sbb byte [rbp+0x1C8DC00C], cl ; int 0x80 ; (1 found)
0x46641: sbb byte [rbx+0x028901C8], al ; ret ; (2 found)
0x1098a: sbb byte [rbx-0x077CFA18], al ; add  [rdi+0x04], esi ; or  [rdx+0x0C], 0x02 ; ret ; (2 found)
0x32552: sbb byte [rbx], bh ; retn 0xF172 ; (1 found)
0x26a17: sbb byte [rbx], bh ; rol  [rcx-0x75], 1 ; ror byte [rdi], 0x4D ; ret ; (1 found)
0x23e48: sbb byte [rcx+r13+0x52], al ; and byte [rax-0x75], cl ; ret ; (1 found)
0x253a9: sbb byte [rcx+r13+0x5A], al ; and byte [rax-0x75], cl ; ret ; (1 found)
0x23e49: sbb byte [rcx+rbp+0x52], al ; and byte [rax-0x75], cl ; ret ; (1 found)
0x253aa: sbb byte [rcx+rbp+0x5A], al ; and byte [rax-0x75], cl ; ret ; (1 found)
0x8d8f: sbb byte [rcx+rcx*4+0x16], al ; mov rsi, qword [rsp+0x10] ; mov  [r8], r9d ; ret ; (1 found)
0x2329b: sbb byte [rcx-0x01], al ; ret ; (1 found)
0x7bd04: sbb byte [rcx-0x75], cl ; push rsi ; or byte [rax-0x7D], cl ; retn 0xE814 ; (1 found)
0xc14e: sbb byte [rcx], al ; add bl, al ; lock or  [rdx], r8d ; ret ; (1 found)
0x2ea76: sbb byte [rcx], al ; add byte [rax], al ; mov qword [rcx+0x00000120], r9 ; ret ; (1 found)
0x2feb4: sbb byte [rcx], al ; add byte [rax], al ; ret ; (1 found)
0x7af65: sbb cl, byte [rax-0x75] ; retn 0xC148 ; (1 found)
0x7e4fc: sbb cl, byte [rax-0x7D] ; ret ; (1 found)
0x93e2: sbb dh, bh ; retn 0x5788 ; (1 found)
0x88674: sbb dh, ch ; std ; jmp qword [rsi-0x39] ; (1 found)
0x7f14e: sbb dh, dh ; ret ; (1 found)
0x2c9e9: sbb dil, dil ; adc eax, 0x00044ECF ; add rsp, 0x28 ; ret ; (1 found)
0x1641e: sbb eax,  [0xFFFFFFFFC0346424] ; ret ; (1 found)
0x3ab98: sbb eax,  [rbx-0x74B7F33F] ; ret ; (1 found)
0x296f1: sbb eax, 0x00000000 ; add rsp, 0x28 ; ret ; (1 found)
0x45b15: sbb eax, 0x000247F2 ; add rsp, 0x20 ; pop rbx ; ret ; (1 found)
0xaedf: sbb eax, 0x48000000 ; add esp, 0x00000088 ; ret ; (1 found)
0x755a9: sbb eax, 0x48000030 ; add esp, 0x38 ; ret ; (1 found)
0x829d7: sbb eax, 0x8D492A75 ; or byte [rax+0x03], cl ; retn 0x8B48 ; (1 found)
0x7fb60: sbb eax, 0x8D492E75 ; or byte [rax+0x03], cl ; retn 0x8B48 ; (1 found)
0x80b4f: sbb eax, 0xC0330774 ; add rsp, 0x28 ; ret ; (1 found)
0x15306: sbb eax, 0xFC00052C ; ret ; (1 found)
0x17335: sbb eax, 0xFFFFFFFF ; ret ; (2 found)
0x16ecc: sbb eax, eax ; add eax, 0x02 ; ret ; (1 found)
0x39f85: sbb eax, eax ; and eax, 0x000000ED ; add eax, 0xC0000002 ; ret ; (1 found)
0x3c089: sbb eax, eax ; and rax, 0xFFFFFFFFFFFFFFFC ; add rax, 0x05 ; ret ; (1 found)
0x2bdfb: sbb eax, eax ; and rax, r8 ; ret ; (1 found)
0x8a16: sbb eax, eax ; not eax ; and eax, 0xC00000BB ; ret ; (1 found)
0x17333: sbb eax, eax ; sbb eax, 0xFFFFFFFF ; ret ; (2 found)
0xadff: sbb ebx,  [rdi+0x01] ; add byte [rax+0x00000001], bh ; ret ; (1 found)
0x1142: sbb ecx,  [rax-0x75] ; ret ; (1 found)
0x2029e: sbb edi, edi ; jmp qword [rsi+0x39] ; (1 found)
0x93e1: sbb r14L, r15L ; retn 0x5788 ; (1 found)
0x88d85: sbb r8L, r13L ; mov edx, 0x8BFFF8E2 ; ret ; (1 found)
0x7b4b6: sbb r8L, sil ; or  [rsp+0x00], 0x00000000 ; ret ; (2 found)
0x3c088: sbb rax, rax ; and rax, 0xFFFFFFFFFFFFFFFC ; add rax, 0x05 ; ret ; (1 found)
0x2bdfa: sbb rax, rax ; and rax, r8 ; ret ; (1 found)
0x31b7a: scasb ; cld ; cld ; jmp qword [rbp+0x48] ; (1 found)
0x14b64: scasb ; or eax, 0xFFFFFFFF ; ret ; (1 found)
0x2b442: scasb ; retn 0x0003 ; (1 found)
0x36975: scasd ; add eax,  [rax] ; add rsp, 0x28 ; ret ; (1 found)
0x181af: scasd ; push r8 ; add rax, qword [rcx+0x48] ; ret ; (1 found)
0x21260: scasd ; ret ; (2 found)
0xbd94: scasd ; retn 0x0F49 ; (1 found)
0x1719: scasd ; retn 0x8148 ; (1 found)
0x8fbe8: scasd ; retn 0xC803 ; (2 found)
0x15e31: scasd ; retn 0xC88B ; (1 found)
0x33aba: scasd ; retn 0xF08B ; (1 found)
0x893ec: scasd ; retn 0xFD8B ; (1 found)
0x4222c: scasd ; rol bl, 0x49 ; div ecx ; ret ; (1 found)
0x36974: scasq ; add eax,  [rax] ; add rsp, 0x28 ; ret ; (1 found)
0x32c27: sete cl ; mov byte [r10+0x15], cl ; ret ; (1 found)
0x221a0: sete cl ; mov eax, r9d ; ret ; (1 found)
0x2219f: sete r9L ; mov eax, r9d ; ret ; (1 found)
0x8ffe4: setnbe al ; ret ; (4 found)
0xa3c3: setne al ; add rsp, 0x28 ; ret ; (1 found)
0x9cb4: setne al ; ret ; (3 found)
0x7a2a0: setns al ; add rsp, 0x28 ; ret ; (4 found)
0xe9fc: shl  [0x000000000000F204], 0x3B ; retn 0x840F ; (1 found)
0x3c188: shl  [rcx+rcx], 0x3C ; add  [rdx+rax*2-0x0A], esi ; retn 0x7503 ; (1 found)
0x42786: shl  [rsi+0x41], 0x3B ; ret ; (1 found)
0x1524f: shl  [rsi+0x41], 0x3B ; retn 0x4F76 ; (1 found)
0x1526c: shl  [rsi+0x41], 0x3B ; retn 0x860F ; (1 found)
0x47d4: shl  [rsi-0x11], 1 ; ret ; (1 found)
0x4772: shl  [rsi-0x13], 1 ; movzx eax, ax ; ret ; (1 found)
0x82b39: shl al, 0x03 ; or cl, al ; mov byte [r9], cl ; ret ; (1 found)
0x39f86: shl byte [0x000000000003A07A], 0x05 ; add al, byte [rax] ; add al, al ; ret ; (1 found)
0x8a19: shl byte [0xFFFFFFFFC0008ADA], 1 ; ret ; (1 found)
0xbd0c: shl byte [0xFFFFFFFFC000BD1F], 1 ; add rsp, 0x20 ; pop rdi ; ret ; (1 found)
0x22784: shl byte [0xFFFFFFFFC00229AF], 1 ; add rsp, 0x28 ; ret ; (1 found)
0x265d7: shl byte [0xFFFFFFFFC00265EA], 1 ; add rsp, 0x20 ; pop rdi ; ret ; (1 found)
0x4867f: shl byte [0xFFFFFFFFC00487C6], 1 ; add rsp, 0x30 ; pop r14 ; ret ; (1 found)
0x4890b: shl byte [0xFFFFFFFFC00489AB], 1 ; add rsp, 0x20 ; pop rbx ; ret ; (1 found)
0x8c606: shl byte [0xFFFFFFFFC008C6A6], 1 ; add rsp, 0x20 ; pop rdi ; ret ; (1 found)
0x8f0a1: shl byte [0xFFFFFFFFC008F141], 1 ; add rsp, 0x20 ; pop rbx ; ret ; (1 found)
0x4663c: shl byte [rax+0x44], 0x88 ; sbb byte [r11+0x028901C8], al ; ret ; (1 found)
0x427ef: shl byte [rsi+0x41], 0x23 ; ret ; (2 found)
0x45568: shl byte [rsi+0x44], 0x23 ; retn 0x00BF ; (1 found)
0x41038: shl byte [rsi-0x11], 1 ; mov eax, 0x00000002 ; ret ; (1 found)
0x15024: shl byte [rsi-0x13], 1 ; mov word [r9], ax ; mov eax, 0x00000002 ; ret ; (1 found)
0x333d: shl eax, 0x0C ; add rax, qword [r9-0x0A] ; ret ; (1 found)
0x36359: shl ecx, 0x0C ; add ecx, 0x00000FFF ; mov  [r8+0x08], ecx ; ret ; (1 found)
0x67ea: shl edx, 0x20 ; or rax, rdx ; add rsp, 0x28 ; ret ; (1 found)
0x4f14: shl edx, 0x20 ; or rax, rdx ; mov qword [0x0000000000065CC0], rax ; ret ; (1 found)
0x488c: shl edx, 0x20 ; or rax, rdx ; ret ; (4 found)
0x333c: shl rax, 0x0C ; add rax, qword [r9-0x0A] ; ret ; (1 found)
0x67e9: shl rdx, 0x20 ; or rax, rdx ; add rsp, 0x28 ; ret ; (1 found)
0x4f13: shl rdx, 0x20 ; or rax, rdx ; mov qword [0x0000000000065CC0], rax ; ret ; (1 found)
0x488b: shl rdx, 0x20 ; or rax, rdx ; ret ; (4 found)
0x40f54: shr ah, 1 ; mov byte [r9], al ; mov eax, 0x00000001 ; ret ; (1 found)
0x10dfa: shr al, 0xC4 ; add byte [rax], al ; add rsp, 0x38 ; ret ; (1 found)
0x19a02: shr al, 0xF8 ; adc al, 0xFF ; call qword [rax-0x01629317] ; (1 found)
0x474d5: shr al, 1 ; add eax, 0x48FFFCB0 ; add esp, 0x28 ; ret ; (1 found)
0x11317: shr al, 1 ; ret ; (1 found)
0x120ba: shr al, cl ; and byte [rax+rax], al ; add byte [rbp-0x75], cl ; retn 0x8D48 ; (1 found)
0xd3ff: shr al, cl ; ret ; (2 found)
0x2f2e8: shr al, cl ; retn 0xFD8E ; (1 found)
0x22778: shr al, cl ; retn 0xFF10 ; (1 found)
0x15298: shr bh, 0x48 ; add esp, 0x28 ; ret ; (1 found)
0x2c1a5: shr bl, 0x04 ; mov eax,  [rsp+0x30] ; add rsp, 0x28 ; ret ; (1 found)
0x7b0ae: shr bl, 0x05 ; mov eax, 0xC000000D ; add rsp, 0x28 ; ret ; (1 found)
0x847e5: shr bl, 0x05 ; mov eax, 0xC000000E ; add rsp, 0x28 ; ret ; (2 found)
0x80ebc: shr cl, 0x13 ; retn 0xFFFF ; (1 found)
0x80e85: shr cl, 0x19 ; retn 0xFFFF ; (1 found)
0x1bf2e: shr cl, 0x5B ; retn 0xFFFE ; (1 found)
0x8c9e6: shr cl, 0x92 ; retn 0xFFFF ; (1 found)
0x1c084: shr cl, 0xC0 ; ret ; (1 found)
0x1f364: shr cl, 0xDE ; or bh, bh ; inc  [rcx+0x2B] ; ret ; (1 found)
0x80ded: shr cl, 0xE2 ; retn 0xFFFF ; (1 found)
0x40fc7: shr dh, 1 ; mov eax, 0x00000001 ; ret ; (1 found)
0x782a6: shr eax, 0x03 ; and eax, 0x01 ; ret ; (1 found)
0x108cd: shr eax, 0x08 ; and al, 0x01 ; ret ; (1 found)
0x14b52: shr eax, 0x3F ; add rax, rdx ; add eax, r10d ; ret ; (1 found)
0x821b5: shr eax, 0x49 ; and  [rax], eax ; add byte [rax-0x00224E17], dl ; jmp qword [rbp-0x75] ; (1 found)
0x4762: shr ebp, 1 ; ret ; (1 found)
0x47c4: shr edi, 1 ; ret ; (1 found)
0x349ed: shr edx, 0x20 ; wrmsr ; mov rbx, qword [rsp+0x08] ; ret ; (1 found)
0x473e: shr edx, 0x20 ; wrmsr ; ret ; (7 found)
0x36949: shr edx, 0x20 ; wrmsr ; xor eax, eax ; ret ; (1 found)
0x47b4: shr esi, 1 ; ret ; (1 found)
0x8eca: shr esi, 1 ; xor eax, eax ; ret ; (1 found)
0x9327: shr esp, 1 ; mov byte [r8], al ; xor eax, eax ; ret ; (1 found)
0x4752: shr esp, 1 ; movzx eax, al ; ret ; (1 found)
0x14b51: shr rax, 0x3F ; add rax, rdx ; add eax, r10d ; ret ; (1 found)
0x349ec: shr rdx, 0x20 ; wrmsr ; mov rbx, qword [rsp+0x08] ; ret ; (1 found)
0x473d: shr rdx, 0x20 ; wrmsr ; ret ; (7 found)
0x36948: shr rdx, 0x20 ; wrmsr ; xor eax, eax ; ret ; (1 found)
0x17166: sldt word [rax] ; add byte [rax+0x23], cl ; retn 0xBA48 ; (1 found)
0x7b0f: sldt word [rax] ; add byte [rdi+rcx-0x4A], al ; retn 0x2B41 ; (1 found)
0x3635f: sldt word [rax] ; mov  [r8+0x08], ecx ; ret ; (1 found)
0x3aff4: sldt word [rbx+0x234C07E0] ; retn 0xC148 ; (1 found)
0x7a11e: stc ; adc byte [rbx+0x06], dh ; mov eax, 0xC0000023 ; ret ; (1 found)
0x80a29: stc ; adc eax, 0xC0331B74 ; add rsp, 0x28 ; ret ; (1 found)
0x7f7c7: stc ; add  [rax+rcx-0x75], esi ; ret ; (1 found)
0x8d2b: stc ; add al, 0x74 ; or dh, dh ; ret ; (1 found)
0x7f6e7: stc ; add dh, byte [rcx+rdx-0x75] ; ret ; (1 found)
0xc9f1: stc ; add esi,  [rdx+rsi-0x75] ; ret ; (1 found)
0x8e1e0: stc ; call qword [rax-0x001FD517] ; (1 found)
0x8124a: stc ; call qword [rax-0x00390317] ; (1 found)
0x810eb: stc ; dec  [rax-0x01] ; ret ; (2 found)
0x768f2: stc ; dec  [rax-0x75] ; ret ; (1 found)
0x7630a: stc ; inc  [rbp+rcx*4+0x43] ; add al, byte [rax+rax*8-0x74BBFC8B] ; ret ; (1 found)
0x7a29c: stc ; inc  [rbp-0x3F66F040] ; add rsp, 0x28 ; ret ; (1 found)
0x800ac: stc ; jmp qword [rbp+0x48] ; (1 found)
0x80a37: stc ; jmp qword [rcx] ; (1 found)
0x7f4db: stc ; or esi,  [rdi-0x75] ; ret ; (1 found)
0x7f65d: stc ; sbb  [rcx+rbp-0x75], esi ; ret ; (1 found)
0x80b4e: stc ; sbb eax, 0xC0330774 ; add rsp, 0x28 ; ret ; (1 found)
0x49c2: stc ; shl rdx, 0x20 ; or rax, rdx ; ret ; (1 found)
0x2f6aa: std ; dec  [rax+0x2B] ; ret ; (1 found)
0x77e96: std ; dec  [rax-0x75] ; ret ; (2 found)
0x8c414: std ; dec  [rax-0x77] ; add eax, 0xFFFD864B ; ret ; (1 found)
0x884bc: std ; dec  [rax-0x7B] ; ror byte [rdi], 0x84 ; ret ; (1 found)
0x88c1d: std ; dec  [rbp+rcx*4+0x47] ; cmp byte [rax-0x7D], cl ; retn 0x442C ; (1 found)
0x88094: std ; inc  [rcx] ; ret ; (1 found)
0x338f5: std ; jmp qword [rbp-0x75] ; (1 found)
0x89978: std ; jmp qword [rcx] ; (2 found)
0x8d969: std ; jmp qword [rsi+0x00] ; (1 found)
0x2f109: std ; jmp qword [rsi+0x0B] ; (2 found)
0x8ba56: std ; jmp qword [rsi+0x44] ; (2 found)
0x88676: std ; jmp qword [rsi-0x39] ; (1 found)
0x3ffcf: std ; jmp qword [rsi-0x77] ; (1 found)
0xbafd: std ; sbb al, 0x01 ; add byte [rcx-0x76], al ; retn 0x8B4C ; (1 found)
0x91b2: sti ; add rsp, 0x20 ; pop rbx ; ret ; (1 found)
0x2b156: sti ; add rsp, 0x20 ; pop rcx ; ret ; (1 found)
0x8d8e6: sti ; and byte [rdi], cl ; xchg dh, dh ; ret ; (1 found)
0x796cd: sti ; call qword [rax-0x001A3317] ; (1 found)
0x79640: sti ; call qword [rax-0x001AEE17] ; (1 found)
0x79629: sti ; call qword [rax-0x001B4D17] ; (1 found)
0x82261: sti ; call qword [rax-0x00218217] ; (2 found)
0x78718: sti ; call qword [rax-0x00303417] ; (1 found)
0x78541: sti ; call qword [rax-0x00303F17] ; (1 found)
0x785c2: sti ; call qword [rax-0x00304A17] ; (1 found)
0x81f28: sti ; call qword [rax-0x0032BA17] ; (1 found)
0x8200f: sti ; call qword [rax-0x00331A17] ; (1 found)
0x81e32: sti ; call qword [rax-0x00349617] ; (3 found)
0x8163c: sti ; call qword [rax-0x0034F017] ; (1 found)
0x81135: sti ; call qword [rax-0x0038E817] ; (2 found)
0x80fbd: sti ; call qword [rax-0x003ABE17] ; (2 found)
0x83987: sti ; dec  [rax-0x7D] ; ret ; (2 found)
0x488be: sti ; dec  [rbx-0x3B7CB73D] ; pop rbx ; ret ; (1 found)
0x173fd: sti ; hlt ; ret ; (1 found)
0x3d660: sti ; mov qword [r8], rax ; add rsp, 0x38 ; ret ; (1 found)
0xb7c2: sti ; pop rcx ; ret ; (2 found)
0x88093: sti ; std ; inc  [rcx] ; ret ; (1 found)
0x1352f: stosd ; add rsp, 0x20 ; pop rdi ; ret ; (1 found)
0x46f29: stosd ; mov dh, 0xFC ; jmp qword [rsi-0x77] ; (1 found)
0x1c2d2: stosd ; ret ; (1 found)
0x8fc30: stosd ; retn 0x8B48 ; (1 found)
0x343f6: stosd ; retn 0xFF41 ; (1 found)
0x80eb4: stosd ; retn 0xFFFF ; (1 found)
0x3c752: str word [rax+0x33] ; ret ; (1 found)
0x3fd55: str word [rcx+0x23] ; retn 0x8348 ; (1 found)
0x35e91: sub  [rax+0x01], 0xA9E80000 ; sar edi, 0xFFFFFFFF ; add rsp, 0x28 ; ret ; (1 found)
0x78621: sub  [rdx-0x4F000031], 0x01 ; ret ; (1 found)
0x8b107: sub al, 0x00 ; add bh, bh ; ret ; (1 found)
0x15307: sub al, 0x05 ; add ah, bh ; ret ; (1 found)
0x15301: sub al, 0x05 ; add byte [rbx+0x052C1D25], al ; add ah, bh ; ret ; (1 found)
0x46f2f: sub al, 0x48 ; add esp, 0x20 ; pop rbx ; ret ; (2 found)
0x1aebf: sub al, 0x72 ; retn 0x8B48 ; (1 found)
0x89339: sub al, 0x8B ; ret ; (2 found)
0x3afe9: sub al, 0x8B ; retn 0xBA48 ; (1 found)
0x1a096: sub al, 0xFF ; ret ; (2 found)
0x2e63f: sub al, byte [rax+rax] ; nop  [rax+rax+0x00] ; add rsp, 0x28 ; ret ; (1 found)
0x2e6e3: sub al, ch ; mov ebx, 0x48000548 ; add esp, 0x28 ; ret ; (1 found)
0x46f27: sub al, ch ; stosd ; mov dh, 0xFC ; jmp qword [rsi-0x77] ; (1 found)
0x1a558: sub bh, bh ; ret ; (1 found)
0x173fc: sub bl, bh ; hlt ; ret ; (1 found)
0x40d72: sub bl, byte [rsp+rdi*8-0x01] ; add rsp, 0x38 ; ret ; (1 found)
0x3f11: sub bl, ch ; ret ; (1 found)
0x3a4ad: sub byte [r13-0x4FFC8A3E], al ; add ebx, eax ; xor al, al ; ret ; (1 found)
0x3263d: sub byte [r8], al ; add rsp, 0x30 ; pop rbx ; ret ; (1 found)
0x2fec3: sub byte [rax-0x007F], cl ; retn 0x0FFF ; (1 found)
0x3263e: sub byte [rax], al ; add rsp, 0x30 ; pop rbx ; ret ; (1 found)
0x2c093: sub byte [rbp-0x17FA8A37], al ; add byte [rax], al ; add rsp, 0x28 ; ret ; (1 found)
0x3a4ae: sub byte [rbp-0x4FFC8A3E], al ; add ebx, eax ; xor al, al ; ret ; (1 found)
0x7b632: sub byte [rbp-0x75], cl ; ret ; (1 found)
0x7e4c3: sub byte [rbx+0x057C05F9], al ; add rsp, 0x28 ; ret ; (1 found)
0x80bf3: sub byte [rbx+0x077407F9], al ; xor eax, eax ; add rsp, 0x28 ; ret ; (2 found)
0x80c33: sub byte [rbx+0x077408F9], al ; xor eax, eax ; add rsp, 0x28 ; ret ; (1 found)
0x7bc05: sub byte [rcx+0x5E], al ; ret ; (5 found)
0x48c4: sub byte [rcx+rcx*4+0x00], cl ; mov al, 0x01 ; ret ; (1 found)
0x22773: sub byte [rcx-0x50], al ; add  [rbx], esi ; shr al, cl ; retn 0xFF10 ; (1 found)
0x176ba: sub byte [rdi+0x00000410], bh ; inc  [rdi+0x04] ; pop rdi ; ret ; (1 found)
0x2f7eb: sub byte [rdi+rcx+0x43], cl ; fdiv  [rbx] ; ror byte [rcx-0x75], cl ; ret ; (1 found)
0x78783: sub byte [rdi], cl ; mov edx, 0x820F1EE2 ; iretq ; (1 found)
0x829d9: sub cl, byte [rcx-0x73] ; or byte [rax+0x03], cl ; retn 0x8B48 ; (1 found)
0x30788: sub eax, 0x245C8B48 ; add rsp, 0x30 ; pop rdi ; ret ; (1 found)
0x118ff: sub eax, 0x48000039 ; add esp, 0x28 ; ret ; (1 found)
0x28170: sub ecx,  [rcx-0x75] ; push rax ; xor byte [rax-0x75], cl ; retn 0xE083 ; (1 found)
0x16459: sub ecx, eax ; mov eax, ecx ; add rsp, 0x28 ; ret ; (1 found)
0x31bc9: sub edx, 0xFFFFFFFF ; jmp qword [rbp-0x75] ; (1 found)
0x46f26: sub r8L, bpl ; stosd ; mov dh, 0xFC ; jmp qword [rsi-0x77] ; (1 found)
0x9b77: syscall ; (3 found)
0x755a8: test  [0x00000000480755DE], ebx ; add esp, 0x38 ; ret ; (1 found)
0x4f56: test  [rax+0x48000154], ebp ; add esp, 0x28 ; ret ; (1 found)
0x10279: test  [rbp-0x73], 0x8B410158 ; ret ; (1 found)
0x85451: test  [rbp-0x75000000], ebp ; or byte [r9+0x0B], r8L ; retn 0x8942 ; (1 found)
0xe9f6: test  [rbx-0x74FFFFFE], ecx ; shl  [0x000000000000F204], 0x3B ; retn 0x840F ; (1 found)
0x2b4d: test  [rbx], ebx ; add  [rax], eax ; add rsp, 0x28 ; ret ; (1 found)
0x9c04: test  [rcx+0x30], esi ; add  [rax], eax ; ret ; (1 found)
0x48781: test  [rcx], 0x14894800 ; add  [rax-0x7D], ecx ; retn 0x0F02 ; (1 found)
0x19dca: test  [rdx-0x16000162], edi ; ret ; (1 found)
0x755cb: test  [rsi+0x30], eax ; add byte [rax], al ; xor al, al ; ret ; (1 found)
0x7517d: test  [rsi+0x31], esi ; add byte [rax], al ; add rsp, 0x48 ; ret ; (1 found)
0x16709: test  [rsi+0x480000B5], ebp ; add esp, 0x28 ; ret ; (1 found)
0x181b: test  [rsi+0x48000169], eax ; mov eax,  [rcx+0x48] ; ret ; (1 found)
0x8a438: test  [rsi-0x74FFFFCA], esp ; retn 0x8948 ; (1 found)
0x81d4b: test ah, cl ; aam 0xFF ; inc  [rbx-0x7BF0C007] ; ret ; (1 found)
0x5450: test ah, dh ; add eax, 0x75C98400 ; add eax, 0x28C48348 ; ret ; (1 found)
0x4f57: test al, 0x54 ; add  [rax], eax ; add rsp, 0x28 ; ret ; (1 found)
0x488bd: test al, 0xFB ; dec  [rbx-0x3B7CB73D] ; pop rbx ; ret ; (1 found)
0x80df5: test al, 0xFF ; call qword [rax-0x003CD517] ; (1 found)
0x80e95: test al, 0xFF ; call qword [rax-0x003D7517] ; (1 found)
0x1a6f4: test al, ah ; test eax, 0xC032FFFE ; ret ; (1 found)
0xa3c1: test al, al ; setne al ; add rsp, 0x28 ; ret ; (1 found)
0x152f3: test bh, cl ; retn 0x0000 ; (1 found)
0x152ea: test bh, dh ; retn 0x0000 ; (1 found)
0x523f: test byte [0x0000000075C9D646], 0x05 ; add rsp, 0x28 ; ret ; (1 found)
0x89ab7: test byte [0x8B4C0000+rdi], bl ; ret ; (1 found)
0x2f772: test byte [rax+0x0F], 0x46 ; ret ; (1 found)
0x3f481: test byte [rax+rbp*4], ah ; add byte [rax], al ; add byte [rdi+rcx+0x44], cl ; retn 0x8B49 ; (1 found)
0x7da61: test byte [rax+rdi+0x00], al ; add bh, bh ; ret ; (1 found)
0x253f6: test byte [rax-0x01], 0x15 ; retn 0x04BC ; (1 found)
0x178ea: test byte [rax], al ; add byte [rax], al ; add byte [rax], al ; jmp rax ; (1 found)
0x9c2a: test byte [rax], dh ; add  [rax], eax ; ret ; (1 found)
0x5581: test byte [rbx+rdx*2-0x74B7FFFF], dl ; ret ; (1 found)
0x8b105: test byte [rbx], ah ; sub al, 0x00 ; add bh, bh ; ret ; (1 found)
0x27adb: test byte [rcx+0x0F], 0x44 ; ret ; (1 found)
0x8df6f: test byte [rcx+0x49FFFFDA], ch ; and  [rax], 0x00000000 ; mov  [rdx], 0x00000004 ; ret ; (1 found)
0x27fd5: test byte [rcx+rcx*4+0x40], 0x08 ; mov rax, rcx ; ret ; (1 found)
0x14704: test byte [rcx+rcx*8+0x00], dh ; add byte [rax-0x75], cl ; ret ; (1 found)
0x1626e: test byte [rcx], ah ; mov ecx, 0xFF410000 ; ret ; (1 found)
0x8a198: test byte [rcx], bl ; cmp byte [rax], al ; add byte [rax-0x7D], cl ; ret ; (1 found)
0x1c388: test byte [rdi], 0x88 ; retn 0xFFFE ; (1 found)
0x7f358: test byte [rdx-0x7D000000], al ; call qword [rcx] ; (1 found)
0x15412: test byte [rdx], dl ; retn 0x0000 ; (1 found)
0x7e58b: test byte [rsi+0x33], cl ; add byte [rax], al ; add rsp, 0x28 ; ret ; (1 found)
0x81134: test byte [rsi-0x05], al ; call qword [rax-0x0038E817] ; (1 found)
0x8d794: test ch, al ; retn 0xFFFF ; (1 found)
0x11c5d: test dh, bh ; in eax, 0x00 ; add byte [rcx-0x75], al ; retn 0xC085 ; (1 found)
0x3c094: test dl, dl ; mov ecx, 0x00000002 ; cmove rax, rcx ; ret ; (1 found)
0x11bfb: test eax, 0x48000004 ; add esp, 0x28 ; ret ; (1 found)
0x7df43: test eax, 0x48FFF899 ; add esp, 0x30 ; pop rbx ; ret ; (1 found)
0x88073: test eax, 0x48FFFE92 ; lea ecx,  [0x000000000007E4C0] ; mov qword [rax+0x00000130], rcx ; ret ; (1 found)
0x2be4f: test eax, 0x48FFFEA2 ; add esp, 0x58 ; ret ; (1 found)
0x35e97: test eax, 0x48FFFFC1 ; add esp, 0x28 ; ret ; (1 found)
0x8df70: test eax, 0x49FFFFDA ; and  [rax], 0x00000000 ; mov  [rdx], 0x00000004 ; ret ; (1 found)
0x2d396: test eax, 0x83480003 ; retn 0x8008 ; (1 found)
0x7b033: test eax, 0x8B44FFFE ; ret ; (1 found)
0x7b043: test eax, 0x8BFFFB95 ; ret ; (1 found)
0x1a6f6: test eax, 0xC032FFFE ; ret ; (1 found)
0x11d03: test eax, 0xEB000009 ; retn 0x8948 ; (1 found)
0x7a29e: test eax, eax ; setns al ; add rsp, 0x28 ; ret ; (4 found)
0xbafc: test ebp, edi ; sbb al, 0x01 ; add byte [rcx-0x76], al ; retn 0x8B4C ; (1 found)
0x170be: test ecx, 0x0175FFFF ; ret ; (1 found)
0x152eb: test edx, 0xE9830000 ; add  [rdi], ecx ; test bh, cl ; retn 0x0000 ; (1 found)
0x80e19: test edx, eax ; add byte [rax], al ; add byte [rbx-0x7DF0E701], al ; ret ; (1 found)
0x266ca: test edx, edx ; cmove r8d, ecx ; mov al, r8L ; ret ; (1 found)
0x1723: test esi, ecx ; add byte [rax], al ; add byte [rcx-0x75], cl ; ret ; (1 found)
0x7f806: test esi, edi ; jmp qword [rcx] ; (3 found)
0x16fb: test esi, esp ; add byte [rax], al ; add byte [rcx-0x75], cl ; ret ; (1 found)
0x266c9: test rdx, rdx ; cmove r8d, ecx ; mov al, r8L ; ret ; (1 found)
0x1a551: wait ; sar esi, cl ; inc  [rbp-0x00D58740] ; ret ; (1 found)
0x49950: wbinvd ; ret ; (1 found)
0x4136a: wrmsr ; add rsp, 0x20 ; pop rbx ; ret ; (1 found)
0x35451: wrmsr ; add rsp, 0x38 ; ret ; (1 found)
0x349f0: wrmsr ; mov rbx, qword [rsp+0x08] ; ret ; (1 found)
0x4741: wrmsr ; ret ; (12 found)
0x490e: wrmsr ; xor eax, eax ; ret ; (5 found)
0x3392a: xadd  [0x000000000006A060], eax ; add rsp, 0x30 ; pop rbx ; ret ; (2 found)
0x2c073: xadd  [0x000000000006A060], eax ; mov eax, 0xC0000001 ; ret ; (1 found)
0x2fb38: xchg  [0x00000000000648D8], edx ; add rsp, 0x28 ; ret ; (1 found)
0x4691: xchg  [0x0000000000067FA8], ecx ; mov rax, rcx ; ret ; (1 found)
0x3efa8: xchg  [rax+0x33], ecx ; ret ; (1 found)
0x17438: xchg  [rax+0x48000000], esp ; mov edi,  [rdi+0x78] ; jmp rcx ; (1 found)
0x49935: xchg  [rbx+rax+0x00], eax ; xor eax, eax ; add rsp, 0x28 ; ret ; (1 found)
0x445f9: xchg  [rcx], eax ; add byte [rax], al ; add rsp, 0x28 ; ret ; (1 found)
0x25f42: xchg  [rdx-0x09FFFFFF], ebp ; fmul  [rax+0x1B] ; rol byte [rbx-0x7EB7EF1E], cl ; retn 0x0098 ; (1 found)
0x15345: xchg ah, al ; retn 0x0000 ; (1 found)
0x181c: xchg byte [rcx+0x01], ch ; add byte [rax-0x75], cl ; ret ; (1 found)
0x8c413: xchg ch, bh ; dec  [rax-0x77] ; add eax, 0xFFFD864B ; ret ; (1 found)
0x8d8e9: xchg dh, dh ; ret ; (1 found)
0x3d4b: xchg eax, ebp ; ret ; (4 found)
0x11736: xchg eax, ebp ; retn 0xE083 ; (2 found)
0x782c5: xchg eax, ebx ; add byte [gs:rax], al ; add rsp, 0x28 ; ret ; (1 found)
0x385b0: xchg eax, ebx ; add eax,  [rax] ; add rsp, 0x28 ; ret ; (1 found)
0x384e1: xchg eax, ebx ; add eax,  [rax] ; add rsp, 0x68 ; ret ; (1 found)
0x80e3e: xchg eax, ebx ; retn 0xFFFF ; (2 found)
0x20191: xchg eax, edi ; add byte [rax], 0x00 ; add bh, bh ; retn 0x47C7 ; (2 found)
0x13391: xchg eax, edi ; add r8, 0x0000000048087300 ; add eax,  [0x0000000000067F38] ; ret ; (1 found)
0x84f5: xchg eax, edi ; ret ; (1 found)
0x174f5: xchg eax, edi ; retn 0x0001 ; (2 found)
0x2e6d2: xchg eax, edx ; add byte [rax], al ; add rsp, 0x28 ; ret ; (1 found)
0x385ce: xchg eax, edx ; add eax,  [rax] ; add rsp, 0x28 ; ret ; (1 found)
0x12180: xchg eax, edx ; ret ; (3 found)
0x122ea: xchg eax, edx ; retn 0x3A40 ; (1 found)
0x123fb: xchg eax, edx ; retn 0x3B66 ; (1 found)
0x1244a: xchg eax, edx ; retn 0xDE3B ; (1 found)
0x8c9e8: xchg eax, edx ; retn 0xFFFF ; (1 found)
0x95f0: xchg eax, esi ; cwde ; add byte [rcx-0x75], cl ; ret ; (1 found)
0x14fe: xchg eax, esi ; rol byte [rax], 0x00 ; add byte [rax-0x007F], cl ; retn 0x967F ; (1 found)
0x3aa77: xchg eax, esi ; sbb al, 0x8B ; ret ; (2 found)
0x523e: xchg eax, esi ; test byte [0x0000000075C9D646], 0x05 ; add rsp, 0x28 ; ret ; (1 found)
0x7e076: xchg eax, esi ; xor al, 0x00 ; add bh, bh ; ret ; (1 found)
0x2ca28: xchg eax, esp ; add al, 0x00 ; add rsp, 0x48 ; ret ; (1 found)
0x38478: xchg eax, esp ; add eax,  [rax] ; add rsp, 0x48 ; ret ; (2 found)
0xa824: xchg eax, esp ; ret ; (3 found)
0x5e34: xchg eax, esp ; retn 0x15FF ; (1 found)
0x49d60: xchg eax, esp ; retn 0x3948 ; (1 found)
0x31e02: xchg eax, esp ; retn 0x8D4C ; (1 found)
0x1d234: xchg eax, esp ; retn 0x91E8 ; (1 found)
0x3e03c: xchg eax, esp ; retn 0xE9C0 ; (1 found)
0x277e5: xchg eax, esp ; retn 0xFF48 ; (4 found)
0x85628: xchg eax, esp ; retn 0xFFFE ; (1 found)
0x221a1: xchg eax, esp ; rol  [rcx-0x75], 0xFFFFFFC1 ; ret ; (1 found)
0x2ed06: xchg esi, edi ; jmp qword [rsi-0x3F] ; (1 found)
0x4690: xchg qword [0x0000000000067FA8], rcx ; mov rax, rcx ; ret ; (1 found)
0x4acb: xlatb ; or eax, 0x02 ; mov  [rcx+0x10], eax ; ret ; (1 found)
0x46753: xor  [r9+0x10], ecx ; add rsp, 0x20 ; pop rdi ; ret ; (1 found)
0x43f71: xor  [rbx-0x1D3EB7F7], ecx ; and byte [rax+0x0B], cl ; retn 0x8B48 ; (1 found)
0x46754: xor  [rcx+0x10], ecx ; add rsp, 0x20 ; pop rdi ; ret ; (1 found)
0x338f3: xor  [rdi], ebx ; std ; jmp qword [rbp-0x75] ; (1 found)
0x20a25: xor  [rdi], ecx ; xchg eax, esp ; ret ; (1 found)
0x4b21: xor  [rdx+0x10], eax ; ret ; (1 found)
0x44fe: xor  [rsi], eax ; add byte [rax-0x77], cl ; add eax, 0x00063128 ; ret ; (1 found)
0x7e077: xor al, 0x00 ; add bh, bh ; ret ; (1 found)
0x4968: xor al, 0x00 ; add byte [rax], al ; ret ; (1 found)
0x8ff42: xor al, 0x01 ; mov al, r8L ; pop r14 ; ret ; (1 found)
0x768f0: xor al, 0xD0 ; stc ; dec  [rax-0x75] ; ret ; (1 found)
0x1e1c0: xor al, 0xFE ; call qword [rax-0x010B6717] ; (1 found)
0x1e1a6: xor al, 0xFE ; call qword [rax-0x010B7717] ; (1 found)
0x21033: xor al, 0xFF ; dec  [rax-0x75] ; ret ; (1 found)
0x2c9cb: xor al, al ; add rsp, 0x20 ; pop rbx ; ret ; (2 found)
0x8b6a: xor al, al ; add rsp, 0x28 ; ret ; (6 found)
0x13737: xor al, al ; add rsp, 0x48 ; ret ; (1 found)
0x755d0: xor al, al ; ret ; (19 found)
0x46263: xor al, ch ; ret ; (1 found)
0xfa94: xor al, ch ; retn 0x0788 ; (1 found)
0x113c: xor bh, 0xFF ; dec  [rax-0x75] ; sbb ecx,  [rax-0x75] ; ret ; (1 found)
0x29ed1: xor bh, bh ; adc eax, 0x000479E8 ; add rsp, 0x38 ; ret ; (1 found)
0x82ac4: xor bh, bh ; ret ; (2 found)
0x1317d: xor bh, bh ; retn 0xC28B ; (1 found)
0x2a4d7: xor byte [r8-0x75], cl ; retn 0x8D4E ; (1 found)
0x671c: xor byte [rax+0x2B], cl ; ret ; (1 found)
0x3a0f0: xor byte [rax-0x01], cl ; ret ; (1 found)
0x44d77: xor byte [rax-0x75], cl ; adc sil, sil ; retn 0x7404 ; (1 found)
0x349f1: xor byte [rax-0x75], cl ; pop rsp ; and al, 0x08 ; ret ; (1 found)
0x25a0d: xor byte [rax-0x75], cl ; ret ; (2 found)
0x26470: xor byte [rax-0x75], cl ; retn 0x8B4C ; (1 found)
0x2a4d8: xor byte [rax-0x75], cl ; retn 0x8D4E ; (1 found)
0x28174: xor byte [rax-0x75], cl ; retn 0xE083 ; (1 found)
0x7fa27: xor byte [rax-0x75], cl ; ror  [rax-0x75], cl ; ret ; (2 found)
0x111dc: xor byte [rax-0x7D], cl ; retn 0x481C ; (1 found)
0x1000c: xor byte [rax-0x7D], cl ; retn 0x4C38 ; (2 found)
0x1145c: xor byte [rax-0x7D], cl ; retn 0x8906 ; (3 found)
0x37670: xor byte [rax-0x7D], cl ; retn 0xE808 ; (1 found)
0x35b25: xor byte [rax], dh ; add byte [rax], al ; pop rbp ; ret ; (1 found)
0x41eff: xor byte [rbp-0x25], 0x48 ; add esp, 0x38 ; ret ; (2 found)
0x32fdc: xor byte [rbp-0x74BBFEA9], cl ; retn 0xDCE8 ; (1 found)
0x3afe5: xor byte [rbp-0x74D38B2E], al ; retn 0xBA48 ; (1 found)
0x80a27: xor byte [rbx+0x1B7415F9], al ; xor eax, eax ; add rsp, 0x28 ; ret ; (1 found)
0x32f50: xor byte [rbx+0x48EFF7E0], al ; add esp, 0x38 ; ret ; (1 found)
0x42065: xor byte [rbx+rbx*8+0x48], 0x81 ; ret ; (2 found)
0x84c25: xor byte [rbx], dh ; jmp qword [rsi-0x77] ; (2 found)
0x2125c: xor byte [rcx+0x0F], al ; scasd ; ret ; (2 found)
0x26891: xor byte [rcx+0x23], cl ; ret ; (2 found)
0x146ad: xor byte [rcx+0x5E], al ; pop r13 ; pop r12 ; ret ; (1 found)
0x7dc3b: xor byte [rcx+0x5E], al ; pop rdi ; pop rbp ; ret ; (1 found)
0x84512: xor byte [rcx+0x5E], al ; pop rdi ; pop rsi ; ret ; (4 found)
0x7a082: xor byte [rcx+0x5E], al ; pop rsi ; pop rbp ; ret ; (1 found)
0x7e326: xor byte [rcx+0x5E], al ; ret ; (13 found)
0x7feb: xor byte [rcx+0x5F], al ; pop r13 ; pop r12 ; ret ; (1 found)
0x77201: xor byte [rcx+0x5F], al ; pop r14 ; pop r12 ; ret ; (12 found)
0xd5b9: xor byte [rcx+0x5F], al ; pop r14 ; pop r13 ; ret ; (2 found)
0x79f6a: xor byte [rcx+0x5F], al ; pop r14 ; pop rdi ; ret ; (14 found)
0x588d: xor byte [rcx+0x5F], al ; pop r14 ; ret ; (3 found)
0x37e4e: xor byte [rcx+rcx*4+0x18], cl ; xor al, al ; ret ; (1 found)
0x1096a: xor byte [rcx-0x75], al ; ret ; (1 found)
0x78276: xor byte [rcx-0x75], al ; retn 0x8B48 ; (2 found)
0x88081: xor byte [rcx], al ; add byte [rax], al ; ret ; (1 found)
0x21285: xor byte [rdi], cl ; scasd ; ret ; (1 found)
0x15b9f: xor cl, byte [rbx+0x48302444] ; add esp, 0x28 ; ret ; (1 found)
0x8ffc0: xor cl, cl ; mov al, cl ; ret ; (1 found)
0x2b01a: xor dl, byte [rax-0x74B2FFFC] ; retn 0x8B49 ; (1 found)
0x4b1b: xor eax,  [rdx+0x10] ; and eax, 0x01 ; xor  [rdx+0x10], eax ; ret ; (1 found)
0x4864: xor eax,  [rsi] ; add byte [rbx-0x3F], cl ; mov  [r8+rax], edx ; ret ; (1 found)
0x395d1: xor eax, 0xB73D8B48 ; ret ; (1 found)
0xe54f: xor eax, eax ; add rsp, 0x00000000000000E0 ; pop rbp ; ret ; (1 found)
0x8c536: xor eax, eax ; add rsp, 0x0000000000000200 ; pop rbp ; ret ; (1 found)
0x7a5bf: xor eax, eax ; add rsp, 0x20 ; pop rbx ; ret ; (16 found)
0x8bb87: xor eax, eax ; add rsp, 0x20 ; pop rdi ; ret ; (2 found)
0x77a3b: xor eax, eax ; add rsp, 0x28 ; ret ; (24 found)
0x1509f: xor eax, eax ; add rsp, 0x30 ; pop rbx ; ret ; (2 found)
0x5a5c: xor eax, eax ; add rsp, 0x30 ; pop rdi ; ret ; (1 found)
0x7f4a3: xor eax, eax ; add rsp, 0x38 ; ret ; (9 found)
0x75851: xor eax, eax ; add rsp, 0x40 ; pop rbx ; ret ; (2 found)
0x818d: xor eax, eax ; add rsp, 0x50 ; pop rbx ; ret ; (1 found)
0x8ffdf: xor eax, eax ; cmp r8, rcx ; setnbe al ; ret ; (2 found)
0x4852e: xor eax, eax ; cmp r8L, cl ; setnbe al ; ret ; (1 found)
0x90043: xor eax, eax ; cmp r8w, cx ; setnbe al ; ret ; (1 found)
0x16e3d: xor eax, eax ; mov  [r8], ecx ; ret ; (1 found)
0x16fea: xor eax, eax ; mov  [rdx], ecx ; ret ; (1 found)
0x32560: xor eax, eax ; mov byte [r9], al ; ret ; (1 found)
0x8eb16: xor eax, eax ; mov eax, r8d ; ret ; (1 found)
0x31db9: xor eax, eax ; mov qword [0x00000000000690E0], rax ; add rsp, 0x38 ; ret ; (1 found)
0x45d0: xor eax, eax ; mov qword [rcx], rax ; mov eax, 0xC00000BB ; ret ; (1 found)
0x8ea5: xor eax, eax ; mov rbx, qword [rsp+0x08] ; ret ; (3 found)
0x428d1: xor eax, eax ; mov rsi, qword [rsp+0x10] ; ret ; (1 found)
0x7513a: xor eax, eax ; ret ; (55 found)
0x17705: xor eax, eax ; xor edx, edx ; wrmsr ; ret ; (1 found)
0x22585: xor ebx,  [rdi] ; add byte [rax], al ; add rsp, 0x38 ; ret ; (1 found)
0x3af2b: xor ecx, edx ; mov qword [rax], rcx ; mov al, 0x01 ; ret ; (1 found)
0x810ea: xor edi, ecx ; dec  [rax-0x01] ; ret ; (1 found)
0x3da2d: xor edi, edi ; ret ; (2 found)
0x1e1e8: xor edi, esi ; call qword [rax-0x010AB517] ; (1 found)
0x1e1ce: xor edi, esi ; call qword [rax-0x010AC217] ; (1 found)
0x4aac: xor edx, eax ; mov  [rcx+0x10], edx ; ret ; (1 found)
0x464fb: xor edx, ecx ; or edx, r8d ; mov  [r9+0x10], edx ; ret ; (2 found)
0x31ff7: xor edx, edx ; mov ecx, 0x400000B0 ; wrmsr ; ret ; (1 found)
0x2b11e: xor edx, edx ; mov ecx, r10d ; mov rax, qword [rax+0x10] ; call rax ; (1 found)
0x2aee4: xor edx, edx ; mov rax, qword [rax] ; call rax ; (2 found)
0x4946: xor edx, edx ; wrmsr ; ret ; (5 found)
0x8ff41: xor r8L, 0x01 ; mov al, r8L ; pop r14 ; ret ; (1 found)
0x8eb15: xor r8d, r8d ; mov eax, r8d ; ret ; (1 found)
0x16e3c: xor rax, rax ; mov  [r8], ecx ; ret ; (1 found)
0x1732f: xor rax, rax ; ret ; (1 found)
0x3af2a: xor rcx, rdx ; mov qword [rax], rcx ; mov al, 0x01 ; ret ; (1 found)
